; Listing generated by Microsoft (R) Optimizing Compiler Version 16.00.30319.01 

	TITLE	D:\專題\自建專案\自建專案\src\BulletSoftBody\btSoftBody.cpp
	.686P
	.XMM
	include listing.inc
	.model	flat

INCLUDELIB LIBCMTD
INCLUDELIB OLDNAMES

PUBLIC	?start_dir@@3HA					; start_dir
PUBLIC	?current_mode@@3HA				; current_mode
PUBLIC	?oldmass@@3MA					; oldmass
PUBLIC	?another@@3HA					; another
PUBLIC	?state@@3HA					; state
PUBLIC	?one@@3HA					; one
PUBLIC	?info@@3PAUcut_info@@A				; info
PUBLIC	?cur_step@@3HA					; cur_step
PUBLIC	?has_denorm@_Num_base@std@@2W4float_denorm_style@2@B ; std::_Num_base::has_denorm
PUBLIC	?has_denorm_loss@_Num_base@std@@2_NB		; std::_Num_base::has_denorm_loss
PUBLIC	?has_infinity@_Num_base@std@@2_NB		; std::_Num_base::has_infinity
PUBLIC	?has_quiet_NaN@_Num_base@std@@2_NB		; std::_Num_base::has_quiet_NaN
PUBLIC	?has_signaling_NaN@_Num_base@std@@2_NB		; std::_Num_base::has_signaling_NaN
PUBLIC	?is_bounded@_Num_base@std@@2_NB			; std::_Num_base::is_bounded
PUBLIC	?is_exact@_Num_base@std@@2_NB			; std::_Num_base::is_exact
PUBLIC	?is_iec559@_Num_base@std@@2_NB			; std::_Num_base::is_iec559
PUBLIC	?is_integer@_Num_base@std@@2_NB			; std::_Num_base::is_integer
PUBLIC	?is_modulo@_Num_base@std@@2_NB			; std::_Num_base::is_modulo
PUBLIC	?is_signed@_Num_base@std@@2_NB			; std::_Num_base::is_signed
PUBLIC	?is_specialized@_Num_base@std@@2_NB		; std::_Num_base::is_specialized
PUBLIC	?tinyness_before@_Num_base@std@@2_NB		; std::_Num_base::tinyness_before
PUBLIC	?traps@_Num_base@std@@2_NB			; std::_Num_base::traps
PUBLIC	?round_style@_Num_base@std@@2W4float_round_style@2@B ; std::_Num_base::round_style
PUBLIC	?digits@_Num_base@std@@2HB			; std::_Num_base::digits
PUBLIC	?digits10@_Num_base@std@@2HB			; std::_Num_base::digits10
PUBLIC	?max_digits10@_Num_base@std@@2HB		; std::_Num_base::max_digits10
PUBLIC	?max_exponent@_Num_base@std@@2HB		; std::_Num_base::max_exponent
PUBLIC	?max_exponent10@_Num_base@std@@2HB		; std::_Num_base::max_exponent10
PUBLIC	?min_exponent@_Num_base@std@@2HB		; std::_Num_base::min_exponent
PUBLIC	?min_exponent10@_Num_base@std@@2HB		; std::_Num_base::min_exponent10
PUBLIC	?radix@_Num_base@std@@2HB			; std::_Num_base::radix
PUBLIC	?is_bounded@_Num_int_base@std@@2_NB		; std::_Num_int_base::is_bounded
PUBLIC	?is_exact@_Num_int_base@std@@2_NB		; std::_Num_int_base::is_exact
PUBLIC	?is_integer@_Num_int_base@std@@2_NB		; std::_Num_int_base::is_integer
PUBLIC	?is_modulo@_Num_int_base@std@@2_NB		; std::_Num_int_base::is_modulo
PUBLIC	?is_specialized@_Num_int_base@std@@2_NB		; std::_Num_int_base::is_specialized
PUBLIC	?radix@_Num_int_base@std@@2HB			; std::_Num_int_base::radix
PUBLIC	?has_denorm@_Num_float_base@std@@2W4float_denorm_style@2@B ; std::_Num_float_base::has_denorm
PUBLIC	?has_denorm_loss@_Num_float_base@std@@2_NB	; std::_Num_float_base::has_denorm_loss
PUBLIC	?has_infinity@_Num_float_base@std@@2_NB		; std::_Num_float_base::has_infinity
PUBLIC	?has_quiet_NaN@_Num_float_base@std@@2_NB	; std::_Num_float_base::has_quiet_NaN
PUBLIC	?has_signaling_NaN@_Num_float_base@std@@2_NB	; std::_Num_float_base::has_signaling_NaN
PUBLIC	?is_bounded@_Num_float_base@std@@2_NB		; std::_Num_float_base::is_bounded
PUBLIC	?is_exact@_Num_float_base@std@@2_NB		; std::_Num_float_base::is_exact
PUBLIC	?is_iec559@_Num_float_base@std@@2_NB		; std::_Num_float_base::is_iec559
PUBLIC	?is_integer@_Num_float_base@std@@2_NB		; std::_Num_float_base::is_integer
PUBLIC	?is_modulo@_Num_float_base@std@@2_NB		; std::_Num_float_base::is_modulo
PUBLIC	?is_signed@_Num_float_base@std@@2_NB		; std::_Num_float_base::is_signed
PUBLIC	?is_specialized@_Num_float_base@std@@2_NB	; std::_Num_float_base::is_specialized
PUBLIC	?tinyness_before@_Num_float_base@std@@2_NB	; std::_Num_float_base::tinyness_before
PUBLIC	?traps@_Num_float_base@std@@2_NB		; std::_Num_float_base::traps
PUBLIC	?round_style@_Num_float_base@std@@2W4float_round_style@2@B ; std::_Num_float_base::round_style
PUBLIC	?radix@_Num_float_base@std@@2HB			; std::_Num_float_base::radix
PUBLIC	?is_signed@?$numeric_limits@D@std@@2_NB		; std::numeric_limits<char>::is_signed
PUBLIC	?digits@?$numeric_limits@D@std@@2HB		; std::numeric_limits<char>::digits
PUBLIC	?digits10@?$numeric_limits@D@std@@2HB		; std::numeric_limits<char>::digits10
PUBLIC	?max_digits10@?$numeric_limits@D@std@@2HB	; std::numeric_limits<char>::max_digits10
PUBLIC	?is_signed@?$numeric_limits@_W@std@@2_NB	; std::numeric_limits<wchar_t>::is_signed
PUBLIC	?digits@?$numeric_limits@_W@std@@2HB		; std::numeric_limits<wchar_t>::digits
PUBLIC	?digits10@?$numeric_limits@_W@std@@2HB		; std::numeric_limits<wchar_t>::digits10
PUBLIC	?max_digits10@?$numeric_limits@_W@std@@2HB	; std::numeric_limits<wchar_t>::max_digits10
PUBLIC	?is_modulo@?$numeric_limits@_N@std@@2_NB	; std::numeric_limits<bool>::is_modulo
PUBLIC	?is_signed@?$numeric_limits@_N@std@@2_NB	; std::numeric_limits<bool>::is_signed
PUBLIC	?digits@?$numeric_limits@_N@std@@2HB		; std::numeric_limits<bool>::digits
PUBLIC	?digits10@?$numeric_limits@_N@std@@2HB		; std::numeric_limits<bool>::digits10
PUBLIC	?max_digits10@?$numeric_limits@_N@std@@2HB	; std::numeric_limits<bool>::max_digits10
PUBLIC	?is_signed@?$numeric_limits@C@std@@2_NB		; std::numeric_limits<signed char>::is_signed
PUBLIC	?digits@?$numeric_limits@C@std@@2HB		; std::numeric_limits<signed char>::digits
PUBLIC	?digits10@?$numeric_limits@C@std@@2HB		; std::numeric_limits<signed char>::digits10
PUBLIC	?max_digits10@?$numeric_limits@C@std@@2HB	; std::numeric_limits<signed char>::max_digits10
PUBLIC	?is_signed@?$numeric_limits@E@std@@2_NB		; std::numeric_limits<unsigned char>::is_signed
PUBLIC	?digits@?$numeric_limits@E@std@@2HB		; std::numeric_limits<unsigned char>::digits
PUBLIC	?digits10@?$numeric_limits@E@std@@2HB		; std::numeric_limits<unsigned char>::digits10
PUBLIC	?max_digits10@?$numeric_limits@E@std@@2HB	; std::numeric_limits<unsigned char>::max_digits10
PUBLIC	?is_signed@?$numeric_limits@F@std@@2_NB		; std::numeric_limits<short>::is_signed
PUBLIC	?digits@?$numeric_limits@F@std@@2HB		; std::numeric_limits<short>::digits
PUBLIC	?digits10@?$numeric_limits@F@std@@2HB		; std::numeric_limits<short>::digits10
PUBLIC	?max_digits10@?$numeric_limits@F@std@@2HB	; std::numeric_limits<short>::max_digits10
PUBLIC	?is_signed@?$numeric_limits@G@std@@2_NB		; std::numeric_limits<unsigned short>::is_signed
PUBLIC	?digits@?$numeric_limits@G@std@@2HB		; std::numeric_limits<unsigned short>::digits
PUBLIC	?digits10@?$numeric_limits@G@std@@2HB		; std::numeric_limits<unsigned short>::digits10
PUBLIC	?max_digits10@?$numeric_limits@G@std@@2HB	; std::numeric_limits<unsigned short>::max_digits10
PUBLIC	?is_signed@?$numeric_limits@H@std@@2_NB		; std::numeric_limits<int>::is_signed
PUBLIC	?digits@?$numeric_limits@H@std@@2HB		; std::numeric_limits<int>::digits
PUBLIC	?digits10@?$numeric_limits@H@std@@2HB		; std::numeric_limits<int>::digits10
PUBLIC	?max_digits10@?$numeric_limits@H@std@@2HB	; std::numeric_limits<int>::max_digits10
PUBLIC	?is_signed@?$numeric_limits@I@std@@2_NB		; std::numeric_limits<unsigned int>::is_signed
PUBLIC	?digits@?$numeric_limits@I@std@@2HB		; std::numeric_limits<unsigned int>::digits
PUBLIC	?digits10@?$numeric_limits@I@std@@2HB		; std::numeric_limits<unsigned int>::digits10
PUBLIC	?max_digits10@?$numeric_limits@I@std@@2HB	; std::numeric_limits<unsigned int>::max_digits10
PUBLIC	?is_signed@?$numeric_limits@J@std@@2_NB		; std::numeric_limits<long>::is_signed
PUBLIC	?digits@?$numeric_limits@J@std@@2HB		; std::numeric_limits<long>::digits
PUBLIC	?digits10@?$numeric_limits@J@std@@2HB		; std::numeric_limits<long>::digits10
PUBLIC	?max_digits10@?$numeric_limits@J@std@@2HB	; std::numeric_limits<long>::max_digits10
PUBLIC	?is_signed@?$numeric_limits@K@std@@2_NB		; std::numeric_limits<unsigned long>::is_signed
PUBLIC	?digits@?$numeric_limits@K@std@@2HB		; std::numeric_limits<unsigned long>::digits
PUBLIC	?digits10@?$numeric_limits@K@std@@2HB		; std::numeric_limits<unsigned long>::digits10
PUBLIC	?max_digits10@?$numeric_limits@K@std@@2HB	; std::numeric_limits<unsigned long>::max_digits10
PUBLIC	?is_signed@?$numeric_limits@_J@std@@2_NB	; std::numeric_limits<__int64>::is_signed
PUBLIC	?digits@?$numeric_limits@_J@std@@2HB		; std::numeric_limits<__int64>::digits
PUBLIC	?digits10@?$numeric_limits@_J@std@@2HB		; std::numeric_limits<__int64>::digits10
PUBLIC	?max_digits10@?$numeric_limits@_J@std@@2HB	; std::numeric_limits<__int64>::max_digits10
PUBLIC	?is_signed@?$numeric_limits@_K@std@@2_NB	; std::numeric_limits<unsigned __int64>::is_signed
PUBLIC	?digits@?$numeric_limits@_K@std@@2HB		; std::numeric_limits<unsigned __int64>::digits
PUBLIC	?digits10@?$numeric_limits@_K@std@@2HB		; std::numeric_limits<unsigned __int64>::digits10
PUBLIC	?max_digits10@?$numeric_limits@_K@std@@2HB	; std::numeric_limits<unsigned __int64>::max_digits10
PUBLIC	?digits@?$numeric_limits@M@std@@2HB		; std::numeric_limits<float>::digits
PUBLIC	?digits10@?$numeric_limits@M@std@@2HB		; std::numeric_limits<float>::digits10
PUBLIC	?max_digits10@?$numeric_limits@M@std@@2HB	; std::numeric_limits<float>::max_digits10
PUBLIC	?max_exponent@?$numeric_limits@M@std@@2HB	; std::numeric_limits<float>::max_exponent
PUBLIC	?max_exponent10@?$numeric_limits@M@std@@2HB	; std::numeric_limits<float>::max_exponent10
PUBLIC	?min_exponent@?$numeric_limits@M@std@@2HB	; std::numeric_limits<float>::min_exponent
PUBLIC	?min_exponent10@?$numeric_limits@M@std@@2HB	; std::numeric_limits<float>::min_exponent10
PUBLIC	?digits@?$numeric_limits@N@std@@2HB		; std::numeric_limits<double>::digits
PUBLIC	?digits10@?$numeric_limits@N@std@@2HB		; std::numeric_limits<double>::digits10
PUBLIC	?max_digits10@?$numeric_limits@N@std@@2HB	; std::numeric_limits<double>::max_digits10
PUBLIC	?max_exponent@?$numeric_limits@N@std@@2HB	; std::numeric_limits<double>::max_exponent
PUBLIC	?max_exponent10@?$numeric_limits@N@std@@2HB	; std::numeric_limits<double>::max_exponent10
PUBLIC	?min_exponent@?$numeric_limits@N@std@@2HB	; std::numeric_limits<double>::min_exponent
PUBLIC	?min_exponent10@?$numeric_limits@N@std@@2HB	; std::numeric_limits<double>::min_exponent10
PUBLIC	?digits@?$numeric_limits@O@std@@2HB		; std::numeric_limits<long double>::digits
PUBLIC	?digits10@?$numeric_limits@O@std@@2HB		; std::numeric_limits<long double>::digits10
PUBLIC	?max_digits10@?$numeric_limits@O@std@@2HB	; std::numeric_limits<long double>::max_digits10
PUBLIC	?max_exponent@?$numeric_limits@O@std@@2HB	; std::numeric_limits<long double>::max_exponent
PUBLIC	?max_exponent10@?$numeric_limits@O@std@@2HB	; std::numeric_limits<long double>::max_exponent10
PUBLIC	?min_exponent@?$numeric_limits@O@std@@2HB	; std::numeric_limits<long double>::min_exponent
PUBLIC	?min_exponent10@?$numeric_limits@O@std@@2HB	; std::numeric_limits<long double>::min_exponent10
PUBLIC	?value@?$integral_constant@_N$0A@@tr1@std@@2_NB	; std::tr1::integral_constant<bool,0>::value
PUBLIC	?value@?$integral_constant@_N$00@tr1@std@@2_NB	; std::tr1::integral_constant<bool,1>::value
PUBLIC	?value@?$integral_constant@I$0A@@tr1@std@@2IB	; std::tr1::integral_constant<unsigned int,0>::value
PUBLIC	?_Rank@?$_Arithmetic_traits@_N@std@@2HB		; std::_Arithmetic_traits<bool>::_Rank
PUBLIC	?_Rank@?$_Arithmetic_traits@D@std@@2HB		; std::_Arithmetic_traits<char>::_Rank
PUBLIC	?_Rank@?$_Arithmetic_traits@C@std@@2HB		; std::_Arithmetic_traits<signed char>::_Rank
PUBLIC	?_Rank@?$_Arithmetic_traits@E@std@@2HB		; std::_Arithmetic_traits<unsigned char>::_Rank
PUBLIC	?_Rank@?$_Arithmetic_traits@F@std@@2HB		; std::_Arithmetic_traits<short>::_Rank
PUBLIC	?_Rank@?$_Arithmetic_traits@G@std@@2HB		; std::_Arithmetic_traits<unsigned short>::_Rank
PUBLIC	?_Rank@?$_Arithmetic_traits@H@std@@2HB		; std::_Arithmetic_traits<int>::_Rank
PUBLIC	?_Rank@?$_Arithmetic_traits@I@std@@2HB		; std::_Arithmetic_traits<unsigned int>::_Rank
PUBLIC	?_Rank@?$_Arithmetic_traits@J@std@@2HB		; std::_Arithmetic_traits<long>::_Rank
PUBLIC	?_Rank@?$_Arithmetic_traits@K@std@@2HB		; std::_Arithmetic_traits<unsigned long>::_Rank
PUBLIC	?_Rank@?$_Arithmetic_traits@_J@std@@2HB		; std::_Arithmetic_traits<__int64>::_Rank
PUBLIC	?_Rank@?$_Arithmetic_traits@_K@std@@2HB		; std::_Arithmetic_traits<unsigned __int64>::_Rank
PUBLIC	?_Rank@?$_Arithmetic_traits@M@std@@2HB		; std::_Arithmetic_traits<float>::_Rank
PUBLIC	?_Rank@?$_Arithmetic_traits@N@std@@2HB		; std::_Arithmetic_traits<double>::_Rank
PUBLIC	?_Rank@?$_Arithmetic_traits@O@std@@2HB		; std::_Arithmetic_traits<long double>::_Rank
PUBLIC	?collate@?$_Locbase@H@std@@2HB			; std::_Locbase<int>::collate
PUBLIC	?ctype@?$_Locbase@H@std@@2HB			; std::_Locbase<int>::ctype
PUBLIC	?monetary@?$_Locbase@H@std@@2HB			; std::_Locbase<int>::monetary
PUBLIC	?numeric@?$_Locbase@H@std@@2HB			; std::_Locbase<int>::numeric
PUBLIC	?time@?$_Locbase@H@std@@2HB			; std::_Locbase<int>::time
PUBLIC	?messages@?$_Locbase@H@std@@2HB			; std::_Locbase<int>::messages
PUBLIC	?all@?$_Locbase@H@std@@2HB			; std::_Locbase<int>::all
PUBLIC	?none@?$_Locbase@H@std@@2HB			; std::_Locbase<int>::none
PUBLIC	?table_size@?$ctype@D@std@@2IB			; std::ctype<char>::table_size
PUBLIC	?skipws@?$_Iosb@H@std@@2W4_Fmtflags@12@B	; std::_Iosb<int>::skipws
PUBLIC	?unitbuf@?$_Iosb@H@std@@2W4_Fmtflags@12@B	; std::_Iosb<int>::unitbuf
PUBLIC	?uppercase@?$_Iosb@H@std@@2W4_Fmtflags@12@B	; std::_Iosb<int>::uppercase
PUBLIC	?showbase@?$_Iosb@H@std@@2W4_Fmtflags@12@B	; std::_Iosb<int>::showbase
PUBLIC	?showpoint@?$_Iosb@H@std@@2W4_Fmtflags@12@B	; std::_Iosb<int>::showpoint
PUBLIC	?showpos@?$_Iosb@H@std@@2W4_Fmtflags@12@B	; std::_Iosb<int>::showpos
PUBLIC	?left@?$_Iosb@H@std@@2W4_Fmtflags@12@B		; std::_Iosb<int>::left
PUBLIC	?right@?$_Iosb@H@std@@2W4_Fmtflags@12@B		; std::_Iosb<int>::right
PUBLIC	?internal@?$_Iosb@H@std@@2W4_Fmtflags@12@B	; std::_Iosb<int>::internal
PUBLIC	?dec@?$_Iosb@H@std@@2W4_Fmtflags@12@B		; std::_Iosb<int>::dec
PUBLIC	?oct@?$_Iosb@H@std@@2W4_Fmtflags@12@B		; std::_Iosb<int>::oct
PUBLIC	?hex@?$_Iosb@H@std@@2W4_Fmtflags@12@B		; std::_Iosb<int>::hex
PUBLIC	?scientific@?$_Iosb@H@std@@2W4_Fmtflags@12@B	; std::_Iosb<int>::scientific
PUBLIC	?fixed@?$_Iosb@H@std@@2W4_Fmtflags@12@B		; std::_Iosb<int>::fixed
PUBLIC	?hexfloat@?$_Iosb@H@std@@2W4_Fmtflags@12@B	; std::_Iosb<int>::hexfloat
PUBLIC	?boolalpha@?$_Iosb@H@std@@2W4_Fmtflags@12@B	; std::_Iosb<int>::boolalpha
PUBLIC	?_Stdio@?$_Iosb@H@std@@2W4_Fmtflags@12@B	; std::_Iosb<int>::_Stdio
PUBLIC	?adjustfield@?$_Iosb@H@std@@2W4_Fmtflags@12@B	; std::_Iosb<int>::adjustfield
PUBLIC	?basefield@?$_Iosb@H@std@@2W4_Fmtflags@12@B	; std::_Iosb<int>::basefield
PUBLIC	?floatfield@?$_Iosb@H@std@@2W4_Fmtflags@12@B	; std::_Iosb<int>::floatfield
PUBLIC	?goodbit@?$_Iosb@H@std@@2W4_Iostate@12@B	; std::_Iosb<int>::goodbit
PUBLIC	?eofbit@?$_Iosb@H@std@@2W4_Iostate@12@B		; std::_Iosb<int>::eofbit
PUBLIC	?failbit@?$_Iosb@H@std@@2W4_Iostate@12@B	; std::_Iosb<int>::failbit
PUBLIC	?badbit@?$_Iosb@H@std@@2W4_Iostate@12@B		; std::_Iosb<int>::badbit
PUBLIC	?_Hardfail@?$_Iosb@H@std@@2W4_Iostate@12@B	; std::_Iosb<int>::_Hardfail
PUBLIC	?in@?$_Iosb@H@std@@2W4_Openmode@12@B		; std::_Iosb<int>::in
PUBLIC	?out@?$_Iosb@H@std@@2W4_Openmode@12@B		; std::_Iosb<int>::out
PUBLIC	?ate@?$_Iosb@H@std@@2W4_Openmode@12@B		; std::_Iosb<int>::ate
PUBLIC	?app@?$_Iosb@H@std@@2W4_Openmode@12@B		; std::_Iosb<int>::app
PUBLIC	?trunc@?$_Iosb@H@std@@2W4_Openmode@12@B		; std::_Iosb<int>::trunc
PUBLIC	?_Nocreate@?$_Iosb@H@std@@2W4_Openmode@12@B	; std::_Iosb<int>::_Nocreate
PUBLIC	?_Noreplace@?$_Iosb@H@std@@2W4_Openmode@12@B	; std::_Iosb<int>::_Noreplace
PUBLIC	?binary@?$_Iosb@H@std@@2W4_Openmode@12@B	; std::_Iosb<int>::binary
PUBLIC	?beg@?$_Iosb@H@std@@2W4_Seekdir@12@B		; std::_Iosb<int>::beg
PUBLIC	?cur@?$_Iosb@H@std@@2W4_Seekdir@12@B		; std::_Iosb<int>::cur
PUBLIC	?end@?$_Iosb@H@std@@2W4_Seekdir@12@B		; std::_Iosb<int>::end
PUBLIC	?start_node@@3HA				; start_node
PUBLIC	?last_face@@3PAHA				; last_face
_BSS	SEGMENT
?start_dir@@3HA DD 01H DUP (?)				; start_dir
?current_mode@@3HA DD 01H DUP (?)			; current_mode
?oldmass@@3MA DD 01H DUP (?)				; oldmass
?another@@3HA DD 01H DUP (?)				; another
?state@@3HA DD	01H DUP (?)				; state
?one@@3HA DD	01H DUP (?)				; one
?info@@3PAUcut_info@@A DB 0960H DUP (?)			; info
?cur_step@@3HA DD 01H DUP (?)				; cur_step
_BSS	ENDS
CONST	SEGMENT
_PI	DD	040490fdbr			; 3.14159
_EPSILON DD	034000000r			; 1.19209e-007
$SG52761 DB	'Assert ..\..\src\BulletSoftBody\btSoftBody.cpp:%u (node0'
	DB	' != node1)', 0aH, 00H
$SG53984 DB	'%f %f %f', 0aH, 00H
	ORG $+2
$SG52763 DB	'Assert ..\..\src\BulletSoftBody\btSoftBody.cpp:%u (node1'
	DB	' != node2)', 0aH, 00H
$SG54007 DB	'w', 00H
	ORG $+2
$SG52765 DB	'Assert ..\..\src\BulletSoftBody\btSoftBody.cpp:%u (node2'
	DB	' != node0)', 0aH, 00H
$SG54009 DB	'w', 00H
	ORG $+2
$SG52914 DB	'Assert ..\..\src\BulletSoftBody\btSoftBody.cpp:%u (nodeI'
	DB	'ndex >= 0 && nodeIndex < m_nodes.size())', 0aH, 00H
	ORG $+2
$SG53602 DB	'Assert ..\..\src\BulletSoftBody\btSoftBody.cpp:%u (sum ='
	DB	'= 2)', 0aH, 00H
	ORG $+2
$SG53902 DB	'hey hey hey', 0aH, 00H
	ORG $+3
$SG53987 DB	0e8H, 0a8H, 0adH, 0e7H, 0bdH, 0aeH, '?', 090H, 0e5H, '?, '
	DB	0e8H, 0abH, 08bH, 0e7H, 094H, 0b1H, 0e4H, 0bdH, 0a0H, 0e7H, '?'
	DB	0e4H, 0b8H, 08bH, 0e6H, 096H, 0b9H, 0e5H, 0beH, 080H, 0e4H, 0b8H
	DB	08aH, 0e5H, 089H, 0aaH, 0aH, 00H
$SG53990 DB	0e8H, 0a8H, 0adH, 0e7H, 0bdH, 0aeH, '?', 090H, 0e5H, '?, '
	DB	0e8H, 0abH, 08bH, 0e7H, 094H, 0b1H, 0e4H, 0bdH, 0a0H, 0e7H, '?'
	DB	0e5H, 0b7H, 0a6H, 0e6H, 096H, 0b9H, 0e5H, 0beH, 080H, '?', 0b3H
	DB	0e5H, 089H, 0aaH, 0aH, 00H
	ORG $+1
$SG53993 DB	0e8H, 0a8H, 0adH, 0e7H, 0bdH, 0aeH, '?', 090H, 0e5H, '?, '
	DB	0e8H, 0abH, 08bH, 0e7H, 094H, 0b1H, 0e4H, 0bdH, 0a0H, 0e7H, '?'
	DB	'?', 0b3H, 0e6H, 096H, 0b9H, 0e5H, 0beH, 080H, 0e5H, 0b7H, 0a6H
	DB	0e5H, 089H, 0aaH, 0aH, 00H
	ORG $+1
$SG53996 DB	0e8H, 0a8H, 0adH, 0e7H, 0bdH, 0aeH, '?', 090H, 0e5H, '?, '
	DB	0e8H, 0abH, 08bH, 0e7H, 094H, 0b1H, 0e4H, 0bdH, 0a0H, 0e7H, '?'
	DB	0e4H, 0b8H, 08aH, 0e6H, 096H, 0b9H, 0e5H, 0beH, 080H, 0e4H, 0b8H
	DB	08bH, 0e5H, 089H, 0aaH, 0aH, 00H
$SG54008 DB	'EvalData.txt', 00H
	ORG $+3
$SG54010 DB	'FaceAndLinkData.txt', 00H
$SG54011 DB	'w', 00H
	ORG $+2
$SG54012 DB	'FaceNodeData.txt', 00H
	ORG $+3
$SG54013 DB	'=============================== Cutting ================'
	DB	'=======================', 0aH, 00H
	ORG $+3
$SG54020 DB	'm_bbending = 1, link %d %d', 0aH, 00H
$SG54033 DB	0e7H, 0acH, '?d?', 08bH, 'link:l.m_n[0]-nbase = %d', 09H, 'l'
	DB	'.m_n[1]-nbase = %d', 0aH, 00H
$SG54038 DB	0e7H, 0acH, '?d?', 08bH, 'face:', 0aH, 00H
	ORG $+3
$SG54039 DB	'f.m_n[0]-nbase = %d', 09H, 'f.m_n[1]-nbase = %d', 0aH, 00H
	ORG $+3
$SG54040 DB	'f.m_n[1]-nbase = %d', 09H, 'f.m_n[2]-nbase = %d', 0aH, 00H
	ORG $+3
$SG54041 DB	'f.m_n[2]-nbase = %d', 09H, 'f.m_n[0]-nbase = %d', 0aH, 00H
	ORG $+3
$SG54045 DB	'%d Node Features:', 0aH, 'm_x:%f %f %f', 0aH, 'm_q:%f %f'
	DB	' %f', 0aH, 'm_v:%f %f %f', 0aH, 'm_f:%f %f %f', 0aH, 'm_n:%f '
	DB	'%f %f', 0aH, 'm_im:%f', 0aH, 'm_area:%f', 0aH, 'm_leaf:%d', 0aH
	DB	'm_battach:%d', 0aH, 0aH, 00H
	ORG $+2
$SG54046 DB	'impact: %f %f %f', 0aH, 00H
	ORG $+2
$SG54067 DB	'last_face:%d', 0aH, 00H
	ORG $+2
$SG54069 DB	'Face:%d %d %d', 0aH, 00H
	ORG $+1
$SG54070 DB	'%d*cutface = %d %d %d', 0aH, 00H
	ORG $+1
$SG54082 DB	'last_impact = %d', 0aH, 00H
	ORG $+2
$SG54083 DB	'last_rcut = %d', 0aH, 00H
$SG54084 DB	'last_lcut = %d', 0aH, 00H
$SG54114 DB	'*link %d %d ?', 089H, 0e4H, 0baH, 0a4H, 0e9H, 0bbH, 09eH
	DB	'\n', 00H
	ORG $+1
$SG54135 DB	'*link %d %d ?', 089H, 0e4H, 0baH, 0a4H, 0e9H, 0bbH, 09eH
	DB	'\n', 00H
	ORG $+1
$SG54137 DB	'crossface = %d', 0aH, ' outcross = %d', 0aH, 00H
	ORG $+1
$SG54139 DB	'Sorry~', 0e8H, 0abH, 08bH, 0e9H, '??', 0b0H, 0e5H, '??', 0aaH
	DB	0e4H, '?', 0e6H, 0acH, '???', 0aH, 00H
	ORG $+2
$SG54140 DB	'Sorry~ Please try again. >O<', 0aH, 00H
	ORG $+2
$SG54143 DB	'//// crossface ////', 0aH, 00H
	ORG $+3
$SG54149 DB	'*%d %d', 0aH, 00H
$SG54152 DB	'//// not crossface ////', 0aH, 00H
	ORG $+3
$SG54158 DB	'judgelink m = %f', 0aH, ' impact = %f', 0aH, 00H
	ORG $+1
$SG54174 DB	'impact on the left face', 0aH, 00H
	ORG $+3
$SG54182 DB	'impact on the right face', 0aH, 00H
	ORG $+2
$SG54212 DB	'right_node:%d', 0aH, 'left_node:%d', 0aH, 00H
$SG54218 DB	'right_node:%d', 0aH, 'left_node:%d', 0aH, 00H
$SG54224 DB	'right_node:%d', 0aH, 'left_node:%d', 0aH, 00H
$SG54230 DB	'right_node:%d', 0aH, 'left_node:%d', 0aH, 00H
$SG54232 DB	'I J %d %d', 0aH, 00H
	ORG $+1
$SG54237 DB	'judgelink m = %f', 0aH, 00H
	ORG $+2
$SG54238 DB	'a = %f', 0aH, 00H
$SG54239 DB	'b = %f', 0aH, 00H
$SG54257 DB	'right_node:%d', 0aH, 'left_node:%d', 0aH, 00H
$SG54273 DB	'right_node:%d', 0aH, 'left_node:%d', 0aH, 00H
$SG54275 DB	'?', 080H, '?', 080H, '~?', 099H, 0e5H, 080H, 08bH, 0e4H, '?'
	DB	0e8H, 0a1H, 08cH, 0e5H, 089H, 0aaH, 0aH, 00H
$SG54276 DB	'Oops~ Please try again. ^_^', 0aH, 00H
	ORG $+3
$SG54279 DB	'*impact node %d : %f %f %f', 0aH, 00H
$SG54290 DB	'impact node %d : %f %f %f', 0aH, 00H
	ORG $+1
$SG54298 DB	'store intersect : %f %f %f', 0aH, 00H
$SG54307 DB	'up_node = %d', 0aH, 00H
	ORG $+2
$SG54309 DB	'****end fold line', 0aH, 00H
	ORG $+1
$SG54314 DB	'rcut node %d : %f %f %f', 0aH, 00H
	ORG $+3
$SG54317 DB	'lcut node %d : %f %f %f', 0aH, 00H
	ORG $+3
$SG54329 DB	'up_face = %d', 0aH, 00H
	ORG $+2
$SG54331 DB	'crossface t = %f', 0aH, 00H
	ORG $+2
$SG54334 DB	'edge_rcut %d : %f %f %f', 0aH, 00H
	ORG $+3
$SG54337 DB	'edge_lcut %d : %f %f %f', 0aH, 00H
	ORG $+3
$SG54338 DB	'^^^TEST:%d', 0aH, 00H
$SG54340 DB	'cut_state = 0', 0aH, 00H
	ORG $+1
$SG54363 DB	'm_face.size():%d', 0aH, 00H
	ORG $+2
$SG54372 DB	'cut_state = 1', 0aH, 00H
	ORG $+1
$SG54385 DB	'cross on %d face %d %d %d', 0aH, 00H
	ORG $+1
$SG54386 DB	'cutdege = %d %d', 0aH, 00H
	ORG $+3
$SG54389 DB	'poplr = %d (0:last_lcut,1:last_rcut)', 0aH, 00H
	ORG $+2
$SG54392 DB	'new face pftttt[0] : %d %d %d', 0aH, 00H
	ORG $+1
$SG54393 DB	'new face pftttt[1] : %d %d %d', 0aH, 00H
	ORG $+1
$SG54398 DB	'new face pftttt[0] : %d %d %d', 0aH, 00H
	ORG $+1
$SG54399 DB	'new face pftttt[1] : %d %d %d', 0aH, 00H
	ORG $+1
$SG54406 DB	'poplr = %d (0:last_lcut,1:last_rcut)', 0aH, 00H
	ORG $+2
$SG54408 DB	'%d', 0aH, 00H
$SG54410 DB	'new face pftttt[0] : %d %d %d', 0aH, 00H
	ORG $+1
$SG54411 DB	'new face pftttt[1] : %d %d %d', 0aH, 00H
	ORG $+1
$SG54416 DB	'new face pftttt[0] : %d %d %d', 0aH, 00H
	ORG $+1
$SG54417 DB	'new face pftttt[1] : %d %d %d', 0aH, 00H
	ORG $+1
$SG54429 DB	'new face pft[0] : %d %d %d', 0aH, 00H
$SG54430 DB	'new face pft[1] : %d %d %d', 0aH, 00H
$SG54444 DB	'new face pftt[0] : %d %d %d', 0aH, 00H
	ORG $+3
$SG54446 DB	'new face pfttt[0] : %d %d %d', 0aH, 00H
	ORG $+2
$SG54447 DB	'new face pfttt[1] : %d %d %d', 0aH, 00H
	ORG $+2
$SG54462 DB	'new link pft[0] : %d %d', 0aH, 00H
	ORG $+3
$SG54463 DB	'new link pft[1] : %d %d', 0aH, 00H
	ORG $+3
$SG54468 DB	'new link pft[0] : %d %d', 0aH, 00H
	ORG $+3
$SG54469 DB	'new link pft[1] : %d %d', 0aH, 00H
	ORG $+3
$SG54470 DB	'm_face.size():%d', 0aH, 00H
	ORG $+2
$SG54474 DB	'crossface cut', 0aH, 00H
	ORG $+1
$SG54477 DB	'new face pft[0] : %d %d %d', 0aH, 00H
$SG54478 DB	'new face pft[1] : %d %d %d', 0aH, 00H
$SG54482 DB	'new face pft[0] : %d %d %d', 0aH, 00H
$SG54483 DB	'new face pft[1] : %d %d %d', 0aH, 00H
$SG54485 DB	'new face pftt[0] : %d %d %d', 0aH, 00H
	ORG $+3
$SG54486 DB	'new face pftt[1] : %d %d %d', 0aH, 00H
	ORG $+3
$SG54580 DB	'%d face : %d %d %d', 0aH, 00H
$SG54584 DB	'%d link : %d %d', 0aH, 00H
	ORG $+3
$SG54761 DB	'You cut the paper!', 0aH, 00H
$SG55584 DB	'UpdateClusters', 00H
	ORG $+1
$SG55701 DB	'ApplyClusters', 00H
	ORG $+2
$SG55977 DB	'SoftBody applyForces', 00H
	ORG $+3
$SG56337 DB	'SoftBodyMaterialData', 00H
	ORG $+3
$SG56341 DB	'SoftBodyMaterialData', 00H
	ORG $+3
$SG56361 DB	'SoftBodyNodeData', 00H
	ORG $+3
$SG56378 DB	'Assert ..\..\src\BulletSoftBody\btSoftBody.cpp:%u (memPt'
	DB	'r->m_nodeIndices[0] < m_nodes.size())', 0aH, 00H
	ORG $+1
$SG56380 DB	'Assert ..\..\src\BulletSoftBody\btSoftBody.cpp:%u (memPt'
	DB	'r->m_nodeIndices[1] < m_nodes.size())', 0aH, 00H
	ORG $+1
$SG56384 DB	'SoftBodyLinkData', 00H
	ORG $+3
$SG56407 DB	'SoftBodyFaceData', 00H
	ORG $+3
$SG56430 DB	'SoftBodyTetraData', 00H
	ORG $+2
$SG56451 DB	'SoftRigidAnchorData', 00H
$SG56447 DB	'Assert ..\..\src\BulletSoftBody\btSoftBody.cpp:%u (memPt'
	DB	'r->m_nodeIndex < m_nodes.size())', 0aH, 00H
	ORG $+2
$SG56475 DB	'btVector3FloatData', 00H
	ORG $+1
$SG56492 DB	'float', 00H
	ORG $+2
$SG56496 DB	'SoftBodyPoseData', 00H
	ORG $+3
$SG56526 DB	'btVector3FloatData', 00H
	ORG $+1
$SG56543 DB	'float', 00H
	ORG $+2
$SG56560 DB	'Assert ..\..\src\BulletSoftBody\btSoftBody.cpp:%u (index'
	DB	'Ptr)', 0aH, 00H
	ORG $+2
$SG56564 DB	'int', 00H
$SG56568 DB	'SoftBodyClusterData', 00H
$SG56602 DB	'btSoftBodyJointData', 00H
$SG56604 DB	'btSoftBodyFloatData', 00H
CONST	ENDS
;	COMDAT ?end@?$_Iosb@H@std@@2W4_Seekdir@12@B
CONST	SEGMENT
?end@?$_Iosb@H@std@@2W4_Seekdir@12@B DD 02H		; std::_Iosb<int>::end
CONST	ENDS
;	COMDAT ?cur@?$_Iosb@H@std@@2W4_Seekdir@12@B
CONST	SEGMENT
?cur@?$_Iosb@H@std@@2W4_Seekdir@12@B DD 01H		; std::_Iosb<int>::cur
CONST	ENDS
;	COMDAT ?beg@?$_Iosb@H@std@@2W4_Seekdir@12@B
CONST	SEGMENT
?beg@?$_Iosb@H@std@@2W4_Seekdir@12@B DD 00H		; std::_Iosb<int>::beg
CONST	ENDS
;	COMDAT ?binary@?$_Iosb@H@std@@2W4_Openmode@12@B
CONST	SEGMENT
?binary@?$_Iosb@H@std@@2W4_Openmode@12@B DD 020H	; std::_Iosb<int>::binary
CONST	ENDS
;	COMDAT ?_Noreplace@?$_Iosb@H@std@@2W4_Openmode@12@B
CONST	SEGMENT
?_Noreplace@?$_Iosb@H@std@@2W4_Openmode@12@B DD 080H	; std::_Iosb<int>::_Noreplace
CONST	ENDS
;	COMDAT ?_Nocreate@?$_Iosb@H@std@@2W4_Openmode@12@B
CONST	SEGMENT
?_Nocreate@?$_Iosb@H@std@@2W4_Openmode@12@B DD 040H	; std::_Iosb<int>::_Nocreate
CONST	ENDS
;	COMDAT ?trunc@?$_Iosb@H@std@@2W4_Openmode@12@B
CONST	SEGMENT
?trunc@?$_Iosb@H@std@@2W4_Openmode@12@B DD 010H		; std::_Iosb<int>::trunc
CONST	ENDS
;	COMDAT ?app@?$_Iosb@H@std@@2W4_Openmode@12@B
CONST	SEGMENT
?app@?$_Iosb@H@std@@2W4_Openmode@12@B DD 08H		; std::_Iosb<int>::app
CONST	ENDS
;	COMDAT ?ate@?$_Iosb@H@std@@2W4_Openmode@12@B
CONST	SEGMENT
?ate@?$_Iosb@H@std@@2W4_Openmode@12@B DD 04H		; std::_Iosb<int>::ate
CONST	ENDS
;	COMDAT ?out@?$_Iosb@H@std@@2W4_Openmode@12@B
CONST	SEGMENT
?out@?$_Iosb@H@std@@2W4_Openmode@12@B DD 02H		; std::_Iosb<int>::out
CONST	ENDS
;	COMDAT ?in@?$_Iosb@H@std@@2W4_Openmode@12@B
CONST	SEGMENT
?in@?$_Iosb@H@std@@2W4_Openmode@12@B DD 01H		; std::_Iosb<int>::in
CONST	ENDS
;	COMDAT ?_Hardfail@?$_Iosb@H@std@@2W4_Iostate@12@B
CONST	SEGMENT
?_Hardfail@?$_Iosb@H@std@@2W4_Iostate@12@B DD 010H	; std::_Iosb<int>::_Hardfail
CONST	ENDS
;	COMDAT ?badbit@?$_Iosb@H@std@@2W4_Iostate@12@B
CONST	SEGMENT
?badbit@?$_Iosb@H@std@@2W4_Iostate@12@B DD 04H		; std::_Iosb<int>::badbit
CONST	ENDS
;	COMDAT ?failbit@?$_Iosb@H@std@@2W4_Iostate@12@B
CONST	SEGMENT
?failbit@?$_Iosb@H@std@@2W4_Iostate@12@B DD 02H		; std::_Iosb<int>::failbit
CONST	ENDS
;	COMDAT ?eofbit@?$_Iosb@H@std@@2W4_Iostate@12@B
CONST	SEGMENT
?eofbit@?$_Iosb@H@std@@2W4_Iostate@12@B DD 01H		; std::_Iosb<int>::eofbit
CONST	ENDS
;	COMDAT ?goodbit@?$_Iosb@H@std@@2W4_Iostate@12@B
CONST	SEGMENT
?goodbit@?$_Iosb@H@std@@2W4_Iostate@12@B DD 00H		; std::_Iosb<int>::goodbit
CONST	ENDS
;	COMDAT ?floatfield@?$_Iosb@H@std@@2W4_Fmtflags@12@B
CONST	SEGMENT
?floatfield@?$_Iosb@H@std@@2W4_Fmtflags@12@B DD 03000H	; std::_Iosb<int>::floatfield
CONST	ENDS
;	COMDAT ?basefield@?$_Iosb@H@std@@2W4_Fmtflags@12@B
CONST	SEGMENT
?basefield@?$_Iosb@H@std@@2W4_Fmtflags@12@B DD 0e00H	; std::_Iosb<int>::basefield
CONST	ENDS
;	COMDAT ?adjustfield@?$_Iosb@H@std@@2W4_Fmtflags@12@B
CONST	SEGMENT
?adjustfield@?$_Iosb@H@std@@2W4_Fmtflags@12@B DD 01c0H	; std::_Iosb<int>::adjustfield
CONST	ENDS
;	COMDAT ?_Stdio@?$_Iosb@H@std@@2W4_Fmtflags@12@B
CONST	SEGMENT
?_Stdio@?$_Iosb@H@std@@2W4_Fmtflags@12@B DD 08000H	; std::_Iosb<int>::_Stdio
CONST	ENDS
;	COMDAT ?boolalpha@?$_Iosb@H@std@@2W4_Fmtflags@12@B
CONST	SEGMENT
?boolalpha@?$_Iosb@H@std@@2W4_Fmtflags@12@B DD 04000H	; std::_Iosb<int>::boolalpha
CONST	ENDS
;	COMDAT ?hexfloat@?$_Iosb@H@std@@2W4_Fmtflags@12@B
CONST	SEGMENT
?hexfloat@?$_Iosb@H@std@@2W4_Fmtflags@12@B DD 03000H	; std::_Iosb<int>::hexfloat
CONST	ENDS
;	COMDAT ?fixed@?$_Iosb@H@std@@2W4_Fmtflags@12@B
CONST	SEGMENT
?fixed@?$_Iosb@H@std@@2W4_Fmtflags@12@B DD 02000H	; std::_Iosb<int>::fixed
CONST	ENDS
;	COMDAT ?scientific@?$_Iosb@H@std@@2W4_Fmtflags@12@B
CONST	SEGMENT
?scientific@?$_Iosb@H@std@@2W4_Fmtflags@12@B DD 01000H	; std::_Iosb<int>::scientific
CONST	ENDS
;	COMDAT ?hex@?$_Iosb@H@std@@2W4_Fmtflags@12@B
CONST	SEGMENT
?hex@?$_Iosb@H@std@@2W4_Fmtflags@12@B DD 0800H		; std::_Iosb<int>::hex
CONST	ENDS
;	COMDAT ?oct@?$_Iosb@H@std@@2W4_Fmtflags@12@B
CONST	SEGMENT
?oct@?$_Iosb@H@std@@2W4_Fmtflags@12@B DD 0400H		; std::_Iosb<int>::oct
CONST	ENDS
;	COMDAT ?dec@?$_Iosb@H@std@@2W4_Fmtflags@12@B
CONST	SEGMENT
?dec@?$_Iosb@H@std@@2W4_Fmtflags@12@B DD 0200H		; std::_Iosb<int>::dec
CONST	ENDS
;	COMDAT ?internal@?$_Iosb@H@std@@2W4_Fmtflags@12@B
CONST	SEGMENT
?internal@?$_Iosb@H@std@@2W4_Fmtflags@12@B DD 0100H	; std::_Iosb<int>::internal
CONST	ENDS
;	COMDAT ?right@?$_Iosb@H@std@@2W4_Fmtflags@12@B
CONST	SEGMENT
?right@?$_Iosb@H@std@@2W4_Fmtflags@12@B DD 080H		; std::_Iosb<int>::right
CONST	ENDS
;	COMDAT ?left@?$_Iosb@H@std@@2W4_Fmtflags@12@B
CONST	SEGMENT
?left@?$_Iosb@H@std@@2W4_Fmtflags@12@B DD 040H		; std::_Iosb<int>::left
CONST	ENDS
;	COMDAT ?showpos@?$_Iosb@H@std@@2W4_Fmtflags@12@B
CONST	SEGMENT
?showpos@?$_Iosb@H@std@@2W4_Fmtflags@12@B DD 020H	; std::_Iosb<int>::showpos
CONST	ENDS
;	COMDAT ?showpoint@?$_Iosb@H@std@@2W4_Fmtflags@12@B
CONST	SEGMENT
?showpoint@?$_Iosb@H@std@@2W4_Fmtflags@12@B DD 010H	; std::_Iosb<int>::showpoint
CONST	ENDS
;	COMDAT ?showbase@?$_Iosb@H@std@@2W4_Fmtflags@12@B
CONST	SEGMENT
?showbase@?$_Iosb@H@std@@2W4_Fmtflags@12@B DD 08H	; std::_Iosb<int>::showbase
CONST	ENDS
;	COMDAT ?uppercase@?$_Iosb@H@std@@2W4_Fmtflags@12@B
CONST	SEGMENT
?uppercase@?$_Iosb@H@std@@2W4_Fmtflags@12@B DD 04H	; std::_Iosb<int>::uppercase
CONST	ENDS
;	COMDAT ?unitbuf@?$_Iosb@H@std@@2W4_Fmtflags@12@B
CONST	SEGMENT
?unitbuf@?$_Iosb@H@std@@2W4_Fmtflags@12@B DD 02H	; std::_Iosb<int>::unitbuf
CONST	ENDS
;	COMDAT ?skipws@?$_Iosb@H@std@@2W4_Fmtflags@12@B
CONST	SEGMENT
?skipws@?$_Iosb@H@std@@2W4_Fmtflags@12@B DD 01H		; std::_Iosb<int>::skipws
CONST	ENDS
;	COMDAT ?table_size@?$ctype@D@std@@2IB
CONST	SEGMENT
?table_size@?$ctype@D@std@@2IB DD 0100H			; std::ctype<char>::table_size
CONST	ENDS
;	COMDAT ?none@?$_Locbase@H@std@@2HB
CONST	SEGMENT
?none@?$_Locbase@H@std@@2HB DD 00H			; std::_Locbase<int>::none
CONST	ENDS
;	COMDAT ?all@?$_Locbase@H@std@@2HB
CONST	SEGMENT
?all@?$_Locbase@H@std@@2HB DD 03fH			; std::_Locbase<int>::all
CONST	ENDS
;	COMDAT ?messages@?$_Locbase@H@std@@2HB
CONST	SEGMENT
?messages@?$_Locbase@H@std@@2HB DD 020H			; std::_Locbase<int>::messages
CONST	ENDS
;	COMDAT ?time@?$_Locbase@H@std@@2HB
CONST	SEGMENT
?time@?$_Locbase@H@std@@2HB DD 010H			; std::_Locbase<int>::time
CONST	ENDS
;	COMDAT ?numeric@?$_Locbase@H@std@@2HB
CONST	SEGMENT
?numeric@?$_Locbase@H@std@@2HB DD 08H			; std::_Locbase<int>::numeric
CONST	ENDS
;	COMDAT ?monetary@?$_Locbase@H@std@@2HB
CONST	SEGMENT
?monetary@?$_Locbase@H@std@@2HB DD 04H			; std::_Locbase<int>::monetary
CONST	ENDS
;	COMDAT ?ctype@?$_Locbase@H@std@@2HB
CONST	SEGMENT
?ctype@?$_Locbase@H@std@@2HB DD 02H			; std::_Locbase<int>::ctype
CONST	ENDS
;	COMDAT ?collate@?$_Locbase@H@std@@2HB
CONST	SEGMENT
?collate@?$_Locbase@H@std@@2HB DD 01H			; std::_Locbase<int>::collate
CONST	ENDS
;	COMDAT ?_Rank@?$_Arithmetic_traits@O@std@@2HB
CONST	SEGMENT
?_Rank@?$_Arithmetic_traits@O@std@@2HB DD 09H		; std::_Arithmetic_traits<long double>::_Rank
CONST	ENDS
;	COMDAT ?_Rank@?$_Arithmetic_traits@N@std@@2HB
CONST	SEGMENT
?_Rank@?$_Arithmetic_traits@N@std@@2HB DD 08H		; std::_Arithmetic_traits<double>::_Rank
CONST	ENDS
;	COMDAT ?_Rank@?$_Arithmetic_traits@M@std@@2HB
CONST	SEGMENT
?_Rank@?$_Arithmetic_traits@M@std@@2HB DD 07H		; std::_Arithmetic_traits<float>::_Rank
CONST	ENDS
;	COMDAT ?_Rank@?$_Arithmetic_traits@_K@std@@2HB
CONST	SEGMENT
?_Rank@?$_Arithmetic_traits@_K@std@@2HB DD 06H		; std::_Arithmetic_traits<unsigned __int64>::_Rank
CONST	ENDS
;	COMDAT ?_Rank@?$_Arithmetic_traits@_J@std@@2HB
CONST	SEGMENT
?_Rank@?$_Arithmetic_traits@_J@std@@2HB DD 06H		; std::_Arithmetic_traits<__int64>::_Rank
CONST	ENDS
;	COMDAT ?_Rank@?$_Arithmetic_traits@K@std@@2HB
CONST	SEGMENT
?_Rank@?$_Arithmetic_traits@K@std@@2HB DD 05H		; std::_Arithmetic_traits<unsigned long>::_Rank
CONST	ENDS
;	COMDAT ?_Rank@?$_Arithmetic_traits@J@std@@2HB
CONST	SEGMENT
?_Rank@?$_Arithmetic_traits@J@std@@2HB DD 05H		; std::_Arithmetic_traits<long>::_Rank
CONST	ENDS
;	COMDAT ?_Rank@?$_Arithmetic_traits@I@std@@2HB
CONST	SEGMENT
?_Rank@?$_Arithmetic_traits@I@std@@2HB DD 04H		; std::_Arithmetic_traits<unsigned int>::_Rank
CONST	ENDS
;	COMDAT ?_Rank@?$_Arithmetic_traits@H@std@@2HB
CONST	SEGMENT
?_Rank@?$_Arithmetic_traits@H@std@@2HB DD 04H		; std::_Arithmetic_traits<int>::_Rank
CONST	ENDS
;	COMDAT ?_Rank@?$_Arithmetic_traits@G@std@@2HB
CONST	SEGMENT
?_Rank@?$_Arithmetic_traits@G@std@@2HB DD 03H		; std::_Arithmetic_traits<unsigned short>::_Rank
CONST	ENDS
;	COMDAT ?_Rank@?$_Arithmetic_traits@F@std@@2HB
CONST	SEGMENT
?_Rank@?$_Arithmetic_traits@F@std@@2HB DD 03H		; std::_Arithmetic_traits<short>::_Rank
CONST	ENDS
;	COMDAT ?_Rank@?$_Arithmetic_traits@E@std@@2HB
CONST	SEGMENT
?_Rank@?$_Arithmetic_traits@E@std@@2HB DD 02H		; std::_Arithmetic_traits<unsigned char>::_Rank
CONST	ENDS
;	COMDAT ?_Rank@?$_Arithmetic_traits@C@std@@2HB
CONST	SEGMENT
?_Rank@?$_Arithmetic_traits@C@std@@2HB DD 02H		; std::_Arithmetic_traits<signed char>::_Rank
CONST	ENDS
;	COMDAT ?_Rank@?$_Arithmetic_traits@D@std@@2HB
CONST	SEGMENT
?_Rank@?$_Arithmetic_traits@D@std@@2HB DD 02H		; std::_Arithmetic_traits<char>::_Rank
CONST	ENDS
;	COMDAT ?_Rank@?$_Arithmetic_traits@_N@std@@2HB
CONST	SEGMENT
?_Rank@?$_Arithmetic_traits@_N@std@@2HB DD 01H		; std::_Arithmetic_traits<bool>::_Rank
CONST	ENDS
;	COMDAT ?value@?$integral_constant@I$0A@@tr1@std@@2IB
CONST	SEGMENT
?value@?$integral_constant@I$0A@@tr1@std@@2IB DD 00H	; std::tr1::integral_constant<unsigned int,0>::value
CONST	ENDS
;	COMDAT ?value@?$integral_constant@_N$00@tr1@std@@2_NB
CONST	SEGMENT
?value@?$integral_constant@_N$00@tr1@std@@2_NB DB 01H	; std::tr1::integral_constant<bool,1>::value
CONST	ENDS
;	COMDAT ?value@?$integral_constant@_N$0A@@tr1@std@@2_NB
CONST	SEGMENT
?value@?$integral_constant@_N$0A@@tr1@std@@2_NB DB 00H	; std::tr1::integral_constant<bool,0>::value
CONST	ENDS
;	COMDAT ?min_exponent10@?$numeric_limits@O@std@@2HB
CONST	SEGMENT
?min_exponent10@?$numeric_limits@O@std@@2HB DD 0fffffecdH ; std::numeric_limits<long double>::min_exponent10
CONST	ENDS
;	COMDAT ?min_exponent@?$numeric_limits@O@std@@2HB
CONST	SEGMENT
?min_exponent@?$numeric_limits@O@std@@2HB DD 0fffffc03H	; std::numeric_limits<long double>::min_exponent
CONST	ENDS
;	COMDAT ?max_exponent10@?$numeric_limits@O@std@@2HB
CONST	SEGMENT
?max_exponent10@?$numeric_limits@O@std@@2HB DD 0134H	; std::numeric_limits<long double>::max_exponent10
CONST	ENDS
;	COMDAT ?max_exponent@?$numeric_limits@O@std@@2HB
CONST	SEGMENT
?max_exponent@?$numeric_limits@O@std@@2HB DD 0400H	; std::numeric_limits<long double>::max_exponent
CONST	ENDS
;	COMDAT ?max_digits10@?$numeric_limits@O@std@@2HB
CONST	SEGMENT
?max_digits10@?$numeric_limits@O@std@@2HB DD 011H	; std::numeric_limits<long double>::max_digits10
CONST	ENDS
;	COMDAT ?digits10@?$numeric_limits@O@std@@2HB
CONST	SEGMENT
?digits10@?$numeric_limits@O@std@@2HB DD 0fH		; std::numeric_limits<long double>::digits10
CONST	ENDS
;	COMDAT ?digits@?$numeric_limits@O@std@@2HB
CONST	SEGMENT
?digits@?$numeric_limits@O@std@@2HB DD 035H		; std::numeric_limits<long double>::digits
CONST	ENDS
;	COMDAT ?min_exponent10@?$numeric_limits@N@std@@2HB
CONST	SEGMENT
?min_exponent10@?$numeric_limits@N@std@@2HB DD 0fffffecdH ; std::numeric_limits<double>::min_exponent10
CONST	ENDS
;	COMDAT ?min_exponent@?$numeric_limits@N@std@@2HB
CONST	SEGMENT
?min_exponent@?$numeric_limits@N@std@@2HB DD 0fffffc03H	; std::numeric_limits<double>::min_exponent
CONST	ENDS
;	COMDAT ?max_exponent10@?$numeric_limits@N@std@@2HB
CONST	SEGMENT
?max_exponent10@?$numeric_limits@N@std@@2HB DD 0134H	; std::numeric_limits<double>::max_exponent10
CONST	ENDS
;	COMDAT ?max_exponent@?$numeric_limits@N@std@@2HB
CONST	SEGMENT
?max_exponent@?$numeric_limits@N@std@@2HB DD 0400H	; std::numeric_limits<double>::max_exponent
CONST	ENDS
;	COMDAT ?max_digits10@?$numeric_limits@N@std@@2HB
CONST	SEGMENT
?max_digits10@?$numeric_limits@N@std@@2HB DD 011H	; std::numeric_limits<double>::max_digits10
CONST	ENDS
;	COMDAT ?digits10@?$numeric_limits@N@std@@2HB
CONST	SEGMENT
?digits10@?$numeric_limits@N@std@@2HB DD 0fH		; std::numeric_limits<double>::digits10
CONST	ENDS
;	COMDAT ?digits@?$numeric_limits@N@std@@2HB
CONST	SEGMENT
?digits@?$numeric_limits@N@std@@2HB DD 035H		; std::numeric_limits<double>::digits
CONST	ENDS
;	COMDAT ?min_exponent10@?$numeric_limits@M@std@@2HB
CONST	SEGMENT
?min_exponent10@?$numeric_limits@M@std@@2HB DD 0ffffffdbH ; std::numeric_limits<float>::min_exponent10
CONST	ENDS
;	COMDAT ?min_exponent@?$numeric_limits@M@std@@2HB
CONST	SEGMENT
?min_exponent@?$numeric_limits@M@std@@2HB DD 0ffffff83H	; std::numeric_limits<float>::min_exponent
CONST	ENDS
;	COMDAT ?max_exponent10@?$numeric_limits@M@std@@2HB
CONST	SEGMENT
?max_exponent10@?$numeric_limits@M@std@@2HB DD 026H	; std::numeric_limits<float>::max_exponent10
CONST	ENDS
;	COMDAT ?max_exponent@?$numeric_limits@M@std@@2HB
CONST	SEGMENT
?max_exponent@?$numeric_limits@M@std@@2HB DD 080H	; std::numeric_limits<float>::max_exponent
CONST	ENDS
;	COMDAT ?max_digits10@?$numeric_limits@M@std@@2HB
CONST	SEGMENT
?max_digits10@?$numeric_limits@M@std@@2HB DD 08H	; std::numeric_limits<float>::max_digits10
CONST	ENDS
;	COMDAT ?digits10@?$numeric_limits@M@std@@2HB
CONST	SEGMENT
?digits10@?$numeric_limits@M@std@@2HB DD 06H		; std::numeric_limits<float>::digits10
CONST	ENDS
;	COMDAT ?digits@?$numeric_limits@M@std@@2HB
CONST	SEGMENT
?digits@?$numeric_limits@M@std@@2HB DD 018H		; std::numeric_limits<float>::digits
CONST	ENDS
;	COMDAT ?max_digits10@?$numeric_limits@_K@std@@2HB
CONST	SEGMENT
?max_digits10@?$numeric_limits@_K@std@@2HB DD 015H	; std::numeric_limits<unsigned __int64>::max_digits10
CONST	ENDS
;	COMDAT ?digits10@?$numeric_limits@_K@std@@2HB
CONST	SEGMENT
?digits10@?$numeric_limits@_K@std@@2HB DD 013H		; std::numeric_limits<unsigned __int64>::digits10
CONST	ENDS
;	COMDAT ?digits@?$numeric_limits@_K@std@@2HB
CONST	SEGMENT
?digits@?$numeric_limits@_K@std@@2HB DD 040H		; std::numeric_limits<unsigned __int64>::digits
CONST	ENDS
;	COMDAT ?is_signed@?$numeric_limits@_K@std@@2_NB
CONST	SEGMENT
?is_signed@?$numeric_limits@_K@std@@2_NB DB 00H		; std::numeric_limits<unsigned __int64>::is_signed
CONST	ENDS
;	COMDAT ?max_digits10@?$numeric_limits@_J@std@@2HB
CONST	SEGMENT
?max_digits10@?$numeric_limits@_J@std@@2HB DD 014H	; std::numeric_limits<__int64>::max_digits10
CONST	ENDS
;	COMDAT ?digits10@?$numeric_limits@_J@std@@2HB
CONST	SEGMENT
?digits10@?$numeric_limits@_J@std@@2HB DD 012H		; std::numeric_limits<__int64>::digits10
CONST	ENDS
;	COMDAT ?digits@?$numeric_limits@_J@std@@2HB
CONST	SEGMENT
?digits@?$numeric_limits@_J@std@@2HB DD 03fH		; std::numeric_limits<__int64>::digits
CONST	ENDS
;	COMDAT ?is_signed@?$numeric_limits@_J@std@@2_NB
CONST	SEGMENT
?is_signed@?$numeric_limits@_J@std@@2_NB DB 01H		; std::numeric_limits<__int64>::is_signed
CONST	ENDS
;	COMDAT ?max_digits10@?$numeric_limits@K@std@@2HB
CONST	SEGMENT
?max_digits10@?$numeric_limits@K@std@@2HB DD 0bH	; std::numeric_limits<unsigned long>::max_digits10
CONST	ENDS
;	COMDAT ?digits10@?$numeric_limits@K@std@@2HB
CONST	SEGMENT
?digits10@?$numeric_limits@K@std@@2HB DD 09H		; std::numeric_limits<unsigned long>::digits10
CONST	ENDS
;	COMDAT ?digits@?$numeric_limits@K@std@@2HB
CONST	SEGMENT
?digits@?$numeric_limits@K@std@@2HB DD 020H		; std::numeric_limits<unsigned long>::digits
CONST	ENDS
;	COMDAT ?is_signed@?$numeric_limits@K@std@@2_NB
CONST	SEGMENT
?is_signed@?$numeric_limits@K@std@@2_NB DB 00H		; std::numeric_limits<unsigned long>::is_signed
CONST	ENDS
;	COMDAT ?max_digits10@?$numeric_limits@J@std@@2HB
CONST	SEGMENT
?max_digits10@?$numeric_limits@J@std@@2HB DD 0bH	; std::numeric_limits<long>::max_digits10
CONST	ENDS
;	COMDAT ?digits10@?$numeric_limits@J@std@@2HB
CONST	SEGMENT
?digits10@?$numeric_limits@J@std@@2HB DD 09H		; std::numeric_limits<long>::digits10
CONST	ENDS
;	COMDAT ?digits@?$numeric_limits@J@std@@2HB
CONST	SEGMENT
?digits@?$numeric_limits@J@std@@2HB DD 01fH		; std::numeric_limits<long>::digits
CONST	ENDS
;	COMDAT ?is_signed@?$numeric_limits@J@std@@2_NB
CONST	SEGMENT
?is_signed@?$numeric_limits@J@std@@2_NB DB 01H		; std::numeric_limits<long>::is_signed
CONST	ENDS
;	COMDAT ?max_digits10@?$numeric_limits@I@std@@2HB
CONST	SEGMENT
?max_digits10@?$numeric_limits@I@std@@2HB DD 0bH	; std::numeric_limits<unsigned int>::max_digits10
CONST	ENDS
;	COMDAT ?digits10@?$numeric_limits@I@std@@2HB
CONST	SEGMENT
?digits10@?$numeric_limits@I@std@@2HB DD 09H		; std::numeric_limits<unsigned int>::digits10
CONST	ENDS
;	COMDAT ?digits@?$numeric_limits@I@std@@2HB
CONST	SEGMENT
?digits@?$numeric_limits@I@std@@2HB DD 020H		; std::numeric_limits<unsigned int>::digits
CONST	ENDS
;	COMDAT ?is_signed@?$numeric_limits@I@std@@2_NB
CONST	SEGMENT
?is_signed@?$numeric_limits@I@std@@2_NB DB 00H		; std::numeric_limits<unsigned int>::is_signed
CONST	ENDS
;	COMDAT ?max_digits10@?$numeric_limits@H@std@@2HB
CONST	SEGMENT
?max_digits10@?$numeric_limits@H@std@@2HB DD 0bH	; std::numeric_limits<int>::max_digits10
CONST	ENDS
;	COMDAT ?digits10@?$numeric_limits@H@std@@2HB
CONST	SEGMENT
?digits10@?$numeric_limits@H@std@@2HB DD 09H		; std::numeric_limits<int>::digits10
CONST	ENDS
;	COMDAT ?digits@?$numeric_limits@H@std@@2HB
CONST	SEGMENT
?digits@?$numeric_limits@H@std@@2HB DD 01fH		; std::numeric_limits<int>::digits
CONST	ENDS
;	COMDAT ?is_signed@?$numeric_limits@H@std@@2_NB
CONST	SEGMENT
?is_signed@?$numeric_limits@H@std@@2_NB DB 01H		; std::numeric_limits<int>::is_signed
CONST	ENDS
;	COMDAT ?max_digits10@?$numeric_limits@G@std@@2HB
CONST	SEGMENT
?max_digits10@?$numeric_limits@G@std@@2HB DD 06H	; std::numeric_limits<unsigned short>::max_digits10
CONST	ENDS
;	COMDAT ?digits10@?$numeric_limits@G@std@@2HB
CONST	SEGMENT
?digits10@?$numeric_limits@G@std@@2HB DD 04H		; std::numeric_limits<unsigned short>::digits10
CONST	ENDS
;	COMDAT ?digits@?$numeric_limits@G@std@@2HB
CONST	SEGMENT
?digits@?$numeric_limits@G@std@@2HB DD 010H		; std::numeric_limits<unsigned short>::digits
CONST	ENDS
;	COMDAT ?is_signed@?$numeric_limits@G@std@@2_NB
CONST	SEGMENT
?is_signed@?$numeric_limits@G@std@@2_NB DB 00H		; std::numeric_limits<unsigned short>::is_signed
CONST	ENDS
;	COMDAT ?max_digits10@?$numeric_limits@F@std@@2HB
CONST	SEGMENT
?max_digits10@?$numeric_limits@F@std@@2HB DD 06H	; std::numeric_limits<short>::max_digits10
CONST	ENDS
;	COMDAT ?digits10@?$numeric_limits@F@std@@2HB
CONST	SEGMENT
?digits10@?$numeric_limits@F@std@@2HB DD 04H		; std::numeric_limits<short>::digits10
CONST	ENDS
;	COMDAT ?digits@?$numeric_limits@F@std@@2HB
CONST	SEGMENT
?digits@?$numeric_limits@F@std@@2HB DD 0fH		; std::numeric_limits<short>::digits
CONST	ENDS
;	COMDAT ?is_signed@?$numeric_limits@F@std@@2_NB
CONST	SEGMENT
?is_signed@?$numeric_limits@F@std@@2_NB DB 01H		; std::numeric_limits<short>::is_signed
CONST	ENDS
;	COMDAT ?max_digits10@?$numeric_limits@E@std@@2HB
CONST	SEGMENT
?max_digits10@?$numeric_limits@E@std@@2HB DD 04H	; std::numeric_limits<unsigned char>::max_digits10
CONST	ENDS
;	COMDAT ?digits10@?$numeric_limits@E@std@@2HB
CONST	SEGMENT
?digits10@?$numeric_limits@E@std@@2HB DD 02H		; std::numeric_limits<unsigned char>::digits10
CONST	ENDS
;	COMDAT ?digits@?$numeric_limits@E@std@@2HB
CONST	SEGMENT
?digits@?$numeric_limits@E@std@@2HB DD 08H		; std::numeric_limits<unsigned char>::digits
CONST	ENDS
;	COMDAT ?is_signed@?$numeric_limits@E@std@@2_NB
CONST	SEGMENT
?is_signed@?$numeric_limits@E@std@@2_NB DB 00H		; std::numeric_limits<unsigned char>::is_signed
CONST	ENDS
;	COMDAT ?max_digits10@?$numeric_limits@C@std@@2HB
CONST	SEGMENT
?max_digits10@?$numeric_limits@C@std@@2HB DD 04H	; std::numeric_limits<signed char>::max_digits10
CONST	ENDS
;	COMDAT ?digits10@?$numeric_limits@C@std@@2HB
CONST	SEGMENT
?digits10@?$numeric_limits@C@std@@2HB DD 02H		; std::numeric_limits<signed char>::digits10
CONST	ENDS
;	COMDAT ?digits@?$numeric_limits@C@std@@2HB
CONST	SEGMENT
?digits@?$numeric_limits@C@std@@2HB DD 07H		; std::numeric_limits<signed char>::digits
CONST	ENDS
;	COMDAT ?is_signed@?$numeric_limits@C@std@@2_NB
CONST	SEGMENT
?is_signed@?$numeric_limits@C@std@@2_NB DB 01H		; std::numeric_limits<signed char>::is_signed
CONST	ENDS
;	COMDAT ?max_digits10@?$numeric_limits@_N@std@@2HB
CONST	SEGMENT
?max_digits10@?$numeric_limits@_N@std@@2HB DD 00H	; std::numeric_limits<bool>::max_digits10
CONST	ENDS
;	COMDAT ?digits10@?$numeric_limits@_N@std@@2HB
CONST	SEGMENT
?digits10@?$numeric_limits@_N@std@@2HB DD 00H		; std::numeric_limits<bool>::digits10
CONST	ENDS
;	COMDAT ?digits@?$numeric_limits@_N@std@@2HB
CONST	SEGMENT
?digits@?$numeric_limits@_N@std@@2HB DD 01H		; std::numeric_limits<bool>::digits
CONST	ENDS
;	COMDAT ?is_signed@?$numeric_limits@_N@std@@2_NB
CONST	SEGMENT
?is_signed@?$numeric_limits@_N@std@@2_NB DB 00H		; std::numeric_limits<bool>::is_signed
CONST	ENDS
;	COMDAT ?is_modulo@?$numeric_limits@_N@std@@2_NB
CONST	SEGMENT
?is_modulo@?$numeric_limits@_N@std@@2_NB DB 00H		; std::numeric_limits<bool>::is_modulo
CONST	ENDS
;	COMDAT ?max_digits10@?$numeric_limits@_W@std@@2HB
CONST	SEGMENT
?max_digits10@?$numeric_limits@_W@std@@2HB DD 06H	; std::numeric_limits<wchar_t>::max_digits10
CONST	ENDS
;	COMDAT ?digits10@?$numeric_limits@_W@std@@2HB
CONST	SEGMENT
?digits10@?$numeric_limits@_W@std@@2HB DD 04H		; std::numeric_limits<wchar_t>::digits10
CONST	ENDS
;	COMDAT ?digits@?$numeric_limits@_W@std@@2HB
CONST	SEGMENT
?digits@?$numeric_limits@_W@std@@2HB DD 010H		; std::numeric_limits<wchar_t>::digits
CONST	ENDS
;	COMDAT ?is_signed@?$numeric_limits@_W@std@@2_NB
CONST	SEGMENT
?is_signed@?$numeric_limits@_W@std@@2_NB DB 00H		; std::numeric_limits<wchar_t>::is_signed
CONST	ENDS
;	COMDAT ?max_digits10@?$numeric_limits@D@std@@2HB
CONST	SEGMENT
?max_digits10@?$numeric_limits@D@std@@2HB DD 04H	; std::numeric_limits<char>::max_digits10
CONST	ENDS
;	COMDAT ?digits10@?$numeric_limits@D@std@@2HB
CONST	SEGMENT
?digits10@?$numeric_limits@D@std@@2HB DD 02H		; std::numeric_limits<char>::digits10
CONST	ENDS
;	COMDAT ?digits@?$numeric_limits@D@std@@2HB
CONST	SEGMENT
?digits@?$numeric_limits@D@std@@2HB DD 07H		; std::numeric_limits<char>::digits
CONST	ENDS
;	COMDAT ?is_signed@?$numeric_limits@D@std@@2_NB
CONST	SEGMENT
?is_signed@?$numeric_limits@D@std@@2_NB DB 01H		; std::numeric_limits<char>::is_signed
CONST	ENDS
;	COMDAT ?radix@_Num_float_base@std@@2HB
CONST	SEGMENT
?radix@_Num_float_base@std@@2HB DD 02H			; std::_Num_float_base::radix
CONST	ENDS
;	COMDAT ?round_style@_Num_float_base@std@@2W4float_round_style@2@B
CONST	SEGMENT
?round_style@_Num_float_base@std@@2W4float_round_style@2@B DD 01H ; std::_Num_float_base::round_style
CONST	ENDS
;	COMDAT ?traps@_Num_float_base@std@@2_NB
CONST	SEGMENT
?traps@_Num_float_base@std@@2_NB DB 01H			; std::_Num_float_base::traps
CONST	ENDS
;	COMDAT ?tinyness_before@_Num_float_base@std@@2_NB
CONST	SEGMENT
?tinyness_before@_Num_float_base@std@@2_NB DB 01H	; std::_Num_float_base::tinyness_before
CONST	ENDS
;	COMDAT ?is_specialized@_Num_float_base@std@@2_NB
CONST	SEGMENT
?is_specialized@_Num_float_base@std@@2_NB DB 01H	; std::_Num_float_base::is_specialized
CONST	ENDS
;	COMDAT ?is_signed@_Num_float_base@std@@2_NB
CONST	SEGMENT
?is_signed@_Num_float_base@std@@2_NB DB 01H		; std::_Num_float_base::is_signed
CONST	ENDS
;	COMDAT ?is_modulo@_Num_float_base@std@@2_NB
CONST	SEGMENT
?is_modulo@_Num_float_base@std@@2_NB DB 00H		; std::_Num_float_base::is_modulo
CONST	ENDS
;	COMDAT ?is_integer@_Num_float_base@std@@2_NB
CONST	SEGMENT
?is_integer@_Num_float_base@std@@2_NB DB 00H		; std::_Num_float_base::is_integer
CONST	ENDS
;	COMDAT ?is_iec559@_Num_float_base@std@@2_NB
CONST	SEGMENT
?is_iec559@_Num_float_base@std@@2_NB DB 01H		; std::_Num_float_base::is_iec559
CONST	ENDS
;	COMDAT ?is_exact@_Num_float_base@std@@2_NB
CONST	SEGMENT
?is_exact@_Num_float_base@std@@2_NB DB 00H		; std::_Num_float_base::is_exact
CONST	ENDS
;	COMDAT ?is_bounded@_Num_float_base@std@@2_NB
CONST	SEGMENT
?is_bounded@_Num_float_base@std@@2_NB DB 01H		; std::_Num_float_base::is_bounded
CONST	ENDS
;	COMDAT ?has_signaling_NaN@_Num_float_base@std@@2_NB
CONST	SEGMENT
?has_signaling_NaN@_Num_float_base@std@@2_NB DB 01H	; std::_Num_float_base::has_signaling_NaN
CONST	ENDS
;	COMDAT ?has_quiet_NaN@_Num_float_base@std@@2_NB
CONST	SEGMENT
?has_quiet_NaN@_Num_float_base@std@@2_NB DB 01H		; std::_Num_float_base::has_quiet_NaN
CONST	ENDS
;	COMDAT ?has_infinity@_Num_float_base@std@@2_NB
CONST	SEGMENT
?has_infinity@_Num_float_base@std@@2_NB DB 01H		; std::_Num_float_base::has_infinity
CONST	ENDS
;	COMDAT ?has_denorm_loss@_Num_float_base@std@@2_NB
CONST	SEGMENT
?has_denorm_loss@_Num_float_base@std@@2_NB DB 01H	; std::_Num_float_base::has_denorm_loss
CONST	ENDS
;	COMDAT ?has_denorm@_Num_float_base@std@@2W4float_denorm_style@2@B
CONST	SEGMENT
?has_denorm@_Num_float_base@std@@2W4float_denorm_style@2@B DD 01H ; std::_Num_float_base::has_denorm
CONST	ENDS
;	COMDAT ?radix@_Num_int_base@std@@2HB
CONST	SEGMENT
?radix@_Num_int_base@std@@2HB DD 02H			; std::_Num_int_base::radix
CONST	ENDS
;	COMDAT ?is_specialized@_Num_int_base@std@@2_NB
CONST	SEGMENT
?is_specialized@_Num_int_base@std@@2_NB DB 01H		; std::_Num_int_base::is_specialized
CONST	ENDS
;	COMDAT ?is_modulo@_Num_int_base@std@@2_NB
CONST	SEGMENT
?is_modulo@_Num_int_base@std@@2_NB DB 01H		; std::_Num_int_base::is_modulo
CONST	ENDS
;	COMDAT ?is_integer@_Num_int_base@std@@2_NB
CONST	SEGMENT
?is_integer@_Num_int_base@std@@2_NB DB 01H		; std::_Num_int_base::is_integer
CONST	ENDS
;	COMDAT ?is_exact@_Num_int_base@std@@2_NB
CONST	SEGMENT
?is_exact@_Num_int_base@std@@2_NB DB 01H		; std::_Num_int_base::is_exact
CONST	ENDS
;	COMDAT ?is_bounded@_Num_int_base@std@@2_NB
CONST	SEGMENT
?is_bounded@_Num_int_base@std@@2_NB DB 01H		; std::_Num_int_base::is_bounded
CONST	ENDS
;	COMDAT ?radix@_Num_base@std@@2HB
CONST	SEGMENT
?radix@_Num_base@std@@2HB DD 00H			; std::_Num_base::radix
CONST	ENDS
;	COMDAT ?min_exponent10@_Num_base@std@@2HB
CONST	SEGMENT
?min_exponent10@_Num_base@std@@2HB DD 00H		; std::_Num_base::min_exponent10
CONST	ENDS
;	COMDAT ?min_exponent@_Num_base@std@@2HB
CONST	SEGMENT
?min_exponent@_Num_base@std@@2HB DD 00H			; std::_Num_base::min_exponent
CONST	ENDS
;	COMDAT ?max_exponent10@_Num_base@std@@2HB
CONST	SEGMENT
?max_exponent10@_Num_base@std@@2HB DD 00H		; std::_Num_base::max_exponent10
CONST	ENDS
;	COMDAT ?max_exponent@_Num_base@std@@2HB
CONST	SEGMENT
?max_exponent@_Num_base@std@@2HB DD 00H			; std::_Num_base::max_exponent
CONST	ENDS
;	COMDAT ?max_digits10@_Num_base@std@@2HB
CONST	SEGMENT
?max_digits10@_Num_base@std@@2HB DD 00H			; std::_Num_base::max_digits10
CONST	ENDS
;	COMDAT ?digits10@_Num_base@std@@2HB
CONST	SEGMENT
?digits10@_Num_base@std@@2HB DD 00H			; std::_Num_base::digits10
CONST	ENDS
;	COMDAT ?digits@_Num_base@std@@2HB
CONST	SEGMENT
?digits@_Num_base@std@@2HB DD 00H			; std::_Num_base::digits
CONST	ENDS
;	COMDAT ?round_style@_Num_base@std@@2W4float_round_style@2@B
CONST	SEGMENT
?round_style@_Num_base@std@@2W4float_round_style@2@B DD 00H ; std::_Num_base::round_style
CONST	ENDS
;	COMDAT ?traps@_Num_base@std@@2_NB
CONST	SEGMENT
?traps@_Num_base@std@@2_NB DB 00H			; std::_Num_base::traps
CONST	ENDS
;	COMDAT ?tinyness_before@_Num_base@std@@2_NB
CONST	SEGMENT
?tinyness_before@_Num_base@std@@2_NB DB 00H		; std::_Num_base::tinyness_before
CONST	ENDS
;	COMDAT ?is_specialized@_Num_base@std@@2_NB
CONST	SEGMENT
?is_specialized@_Num_base@std@@2_NB DB 00H		; std::_Num_base::is_specialized
CONST	ENDS
;	COMDAT ?is_signed@_Num_base@std@@2_NB
CONST	SEGMENT
?is_signed@_Num_base@std@@2_NB DB 00H			; std::_Num_base::is_signed
CONST	ENDS
;	COMDAT ?is_modulo@_Num_base@std@@2_NB
CONST	SEGMENT
?is_modulo@_Num_base@std@@2_NB DB 00H			; std::_Num_base::is_modulo
CONST	ENDS
;	COMDAT ?is_integer@_Num_base@std@@2_NB
CONST	SEGMENT
?is_integer@_Num_base@std@@2_NB DB 00H			; std::_Num_base::is_integer
CONST	ENDS
;	COMDAT ?is_iec559@_Num_base@std@@2_NB
CONST	SEGMENT
?is_iec559@_Num_base@std@@2_NB DB 00H			; std::_Num_base::is_iec559
CONST	ENDS
;	COMDAT ?is_exact@_Num_base@std@@2_NB
CONST	SEGMENT
?is_exact@_Num_base@std@@2_NB DB 00H			; std::_Num_base::is_exact
CONST	ENDS
;	COMDAT ?is_bounded@_Num_base@std@@2_NB
CONST	SEGMENT
?is_bounded@_Num_base@std@@2_NB DB 00H			; std::_Num_base::is_bounded
CONST	ENDS
;	COMDAT ?has_signaling_NaN@_Num_base@std@@2_NB
CONST	SEGMENT
?has_signaling_NaN@_Num_base@std@@2_NB DB 00H		; std::_Num_base::has_signaling_NaN
CONST	ENDS
;	COMDAT ?has_quiet_NaN@_Num_base@std@@2_NB
CONST	SEGMENT
?has_quiet_NaN@_Num_base@std@@2_NB DB 00H		; std::_Num_base::has_quiet_NaN
CONST	ENDS
;	COMDAT ?has_infinity@_Num_base@std@@2_NB
CONST	SEGMENT
?has_infinity@_Num_base@std@@2_NB DB 00H		; std::_Num_base::has_infinity
CONST	ENDS
;	COMDAT ?has_denorm_loss@_Num_base@std@@2_NB
CONST	SEGMENT
?has_denorm_loss@_Num_base@std@@2_NB DB 00H		; std::_Num_base::has_denorm_loss
CONST	ENDS
;	COMDAT ?has_denorm@_Num_base@std@@2W4float_denorm_style@2@B
CONST	SEGMENT
?has_denorm@_Num_base@std@@2W4float_denorm_style@2@B DD 00H ; std::_Num_base::has_denorm
CONST	ENDS
_DATA	SEGMENT
_btNanMask DD	07f800001H
_btInfinityMask DD 07f800000H
?start_node@@3HA DD 0ffffffffH				; start_node
?last_face@@3PAHA DD 0ffffffffH				; last_face
	DD	0ffffffffH
_DATA	ENDS
PUBLIC	??_H@YGXPAXIHP6EPAX0@Z@Z			; `vector constructor iterator'
EXTRN	__RTC_CheckEsp:PROC
EXTRN	__RTC_Shutdown:PROC
EXTRN	__RTC_InitBase:PROC
;	COMDAT rtc$TMZ
rtc$TMZ	SEGMENT
__RTC_Shutdown.rtc$TMZ DD FLAT:__RTC_Shutdown
rtc$TMZ	ENDS
;	COMDAT rtc$IMZ
rtc$IMZ	SEGMENT
__RTC_InitBase.rtc$IMZ DD FLAT:__RTC_InitBase
; Function compile flags: /Odtp /RTCsu
rtc$IMZ	ENDS
;	COMDAT ??_H@YGXPAXIHP6EPAX0@Z@Z
_TEXT	SEGMENT
___t$ = 8						; size = 4
___s$ = 12						; size = 4
___n$ = 16						; size = 4
___f$ = 20						; size = 4
??_H@YGXPAXIHP6EPAX0@Z@Z PROC				; `vector constructor iterator', COMDAT
	push	ebp
	mov	ebp, esp
	push	esi
$LN2@vector:
	mov	eax, DWORD PTR ___n$[ebp]
	sub	eax, 1
	mov	DWORD PTR ___n$[ebp], eax
	js	SHORT $LN3@vector
	mov	esi, esp
	mov	ecx, DWORD PTR ___t$[ebp]
	call	DWORD PTR ___f$[ebp]
	cmp	esi, esp
	call	__RTC_CheckEsp
	mov	ecx, DWORD PTR ___t$[ebp]
	add	ecx, DWORD PTR ___s$[ebp]
	mov	DWORD PTR ___t$[ebp], ecx
	jmp	SHORT $LN2@vector
$LN3@vector:
	pop	esi
	cmp	ebp, esp
	call	__RTC_CheckEsp
	pop	ebp
	ret	16					; 00000010H
??_H@YGXPAXIHP6EPAX0@Z@Z ENDP				; `vector constructor iterator'
_TEXT	ENDS
PUBLIC	__real@00000000
PUBLIC	__real@3f800000
PUBLIC	?btDot@@YAMABVbtVector3@@0@Z			; btDot
PUBLIC	??G@YA?AVbtVector3@@ABV0@0@Z			; operator-
PUBLIC	?PointinTriangle@@YA_NAAVbtVector3@@000@Z	; PointinTriangle
EXTRN	__fltused:DWORD
EXTRN	@_RTC_CheckStackVars@8:PROC
;	COMDAT __real@00000000
; File d:\專題\自建專案\自建專案\src\bulletsoftbody\btsoftbody.cpp
CONST	SEGMENT
__real@00000000 DD 000000000r			; 0
CONST	ENDS
;	COMDAT __real@3f800000
CONST	SEGMENT
__real@3f800000 DD 03f800000r			; 1
; Function compile flags: /Odtp /RTCsu
CONST	ENDS
;	COMDAT ?PointinTriangle@@YA_NAAVbtVector3@@000@Z
_TEXT	SEGMENT
tv141 = -136						; size = 4
_v$ = -132						; size = 4
_u$ = -128						; size = 4
_inverDeno$ = -124					; size = 4
_dot12$ = -120						; size = 4
_dot11$ = -116						; size = 4
_dot02$ = -112						; size = 4
_dot01$ = -108						; size = 4
_dot00$ = -104						; size = 4
_v2$ = -96						; size = 16
_v1$ = -64						; size = 16
_v0$ = -32						; size = 16
_A$ = 8							; size = 4
_B$ = 12						; size = 4
_C$ = 16						; size = 4
_P$ = 20						; size = 4
?PointinTriangle@@YA_NAAVbtVector3@@000@Z PROC		; PointinTriangle, COMDAT
; Line 37
	push	ebx
	mov	ebx, esp
	sub	esp, 8
	and	esp, -16				; fffffff0H
	add	esp, 4
	push	ebp
	mov	ebp, DWORD PTR [ebx+4]
	mov	DWORD PTR [esp+4], ebp
	mov	ebp, esp
	sub	esp, 144				; 00000090H
	push	edi
	lea	edi, DWORD PTR [ebp-144]
	mov	ecx, 36					; 00000024H
	mov	eax, -858993460				; ccccccccH
	rep stosd
; Line 38
	mov	eax, DWORD PTR _A$[ebx]
	push	eax
	mov	ecx, DWORD PTR _C$[ebx]
	push	ecx
	lea	edx, DWORD PTR _v0$[ebp]
	push	edx
	call	??G@YA?AVbtVector3@@ABV0@0@Z		; operator-
	add	esp, 12					; 0000000cH
; Line 39
	mov	eax, DWORD PTR _A$[ebx]
	push	eax
	mov	ecx, DWORD PTR _B$[ebx]
	push	ecx
	lea	edx, DWORD PTR _v1$[ebp]
	push	edx
	call	??G@YA?AVbtVector3@@ABV0@0@Z		; operator-
	add	esp, 12					; 0000000cH
; Line 40
	mov	eax, DWORD PTR _A$[ebx]
	push	eax
	mov	ecx, DWORD PTR _P$[ebx]
	push	ecx
	lea	edx, DWORD PTR _v2$[ebp]
	push	edx
	call	??G@YA?AVbtVector3@@ABV0@0@Z		; operator-
	add	esp, 12					; 0000000cH
; Line 42
	lea	eax, DWORD PTR _v0$[ebp]
	push	eax
	lea	ecx, DWORD PTR _v0$[ebp]
	push	ecx
	call	?btDot@@YAMABVbtVector3@@0@Z		; btDot
	add	esp, 8
	fstp	DWORD PTR _dot00$[ebp]
; Line 43
	lea	edx, DWORD PTR _v1$[ebp]
	push	edx
	lea	eax, DWORD PTR _v0$[ebp]
	push	eax
	call	?btDot@@YAMABVbtVector3@@0@Z		; btDot
	add	esp, 8
	fstp	DWORD PTR _dot01$[ebp]
; Line 44
	lea	ecx, DWORD PTR _v2$[ebp]
	push	ecx
	lea	edx, DWORD PTR _v0$[ebp]
	push	edx
	call	?btDot@@YAMABVbtVector3@@0@Z		; btDot
	add	esp, 8
	fstp	DWORD PTR _dot02$[ebp]
; Line 45
	lea	eax, DWORD PTR _v1$[ebp]
	push	eax
	lea	ecx, DWORD PTR _v1$[ebp]
	push	ecx
	call	?btDot@@YAMABVbtVector3@@0@Z		; btDot
	add	esp, 8
	fstp	DWORD PTR _dot11$[ebp]
; Line 46
	lea	edx, DWORD PTR _v2$[ebp]
	push	edx
	lea	eax, DWORD PTR _v1$[ebp]
	push	eax
	call	?btDot@@YAMABVbtVector3@@0@Z		; btDot
	add	esp, 8
	fstp	DWORD PTR _dot12$[ebp]
; Line 48
	fld	DWORD PTR _dot00$[ebp]
	fmul	DWORD PTR _dot11$[ebp]
	fld	DWORD PTR _dot01$[ebp]
	fmul	DWORD PTR _dot01$[ebp]
	fsubp	ST(1), ST(0)
	fld1
	fdivrp	ST(1), ST(0)
	fstp	DWORD PTR _inverDeno$[ebp]
; Line 50
	fld	DWORD PTR _dot11$[ebp]
	fmul	DWORD PTR _dot02$[ebp]
	fld	DWORD PTR _dot01$[ebp]
	fmul	DWORD PTR _dot12$[ebp]
	fsubp	ST(1), ST(0)
	fmul	DWORD PTR _inverDeno$[ebp]
	fstp	DWORD PTR _u$[ebp]
; Line 51
	fldz
	fcomp	DWORD PTR _u$[ebp]
	fnstsw	ax
	test	ah, 65					; 00000041H
	je	SHORT $LN3@PointinTri
	fld1
	fcomp	DWORD PTR _u$[ebp]
	fnstsw	ax
	test	ah, 5
	jp	SHORT $LN4@PointinTri
$LN3@PointinTri:
; Line 53
	xor	al, al
	jmp	SHORT $LN5@PointinTri
$LN4@PointinTri:
; Line 56
	fld	DWORD PTR _dot00$[ebp]
	fmul	DWORD PTR _dot12$[ebp]
	fld	DWORD PTR _dot01$[ebp]
	fmul	DWORD PTR _dot02$[ebp]
	fsubp	ST(1), ST(0)
	fmul	DWORD PTR _inverDeno$[ebp]
	fstp	DWORD PTR _v$[ebp]
; Line 57
	fldz
	fcomp	DWORD PTR _v$[ebp]
	fnstsw	ax
	test	ah, 65					; 00000041H
	je	SHORT $LN1@PointinTri
	fld1
	fcomp	DWORD PTR _v$[ebp]
	fnstsw	ax
	test	ah, 5
	jp	SHORT $LN2@PointinTri
$LN1@PointinTri:
; Line 59
	xor	al, al
	jmp	SHORT $LN5@PointinTri
$LN2@PointinTri:
; Line 62
	fld	DWORD PTR _u$[ebp]
	fadd	DWORD PTR _v$[ebp]
	fcomp	DWORD PTR __real@3f800000
	fnstsw	ax
	test	ah, 65					; 00000041H
	jp	SHORT $LN7@PointinTri
	mov	DWORD PTR tv141[ebp], 1
	jmp	SHORT $LN8@PointinTri
$LN7@PointinTri:
	mov	DWORD PTR tv141[ebp], 0
$LN8@PointinTri:
	mov	al, BYTE PTR tv141[ebp]
$LN5@PointinTri:
; Line 63
	push	edx
	mov	ecx, ebp
	push	eax
	lea	edx, DWORD PTR $LN13@PointinTri
	call	@_RTC_CheckStackVars@8
	pop	eax
	pop	edx
	pop	edi
	mov	esp, ebp
	pop	ebp
	mov	esp, ebx
	pop	ebx
	ret	0
	npad	1
$LN13@PointinTri:
	DD	3
	DD	$LN12@PointinTri
$LN12@PointinTri:
	DD	-32					; ffffffe0H
	DD	16					; 00000010H
	DD	$LN9@PointinTri
	DD	-64					; ffffffc0H
	DD	16					; 00000010H
	DD	$LN10@PointinTri
	DD	-96					; ffffffa0H
	DD	16					; 00000010H
	DD	$LN11@PointinTri
$LN11@PointinTri:
	DB	118					; 00000076H
	DB	50					; 00000032H
	DB	0
$LN10@PointinTri:
	DB	118					; 00000076H
	DB	49					; 00000031H
	DB	0
$LN9@PointinTri:
	DB	118					; 00000076H
	DB	48					; 00000030H
	DB	0
?PointinTriangle@@YA_NAAVbtVector3@@000@Z ENDP		; PointinTriangle
_TEXT	ENDS
PUBLIC	??0btVector3@@QAE@ABM00@Z			; btVector3::btVector3
; Function compile flags: /Odtp /RTCsu
;	COMDAT ??G@YA?AVbtVector3@@ABV0@0@Z
_TEXT	SEGMENT
$T65666 = -12						; size = 4
$T65665 = -8						; size = 4
$T65664 = -4						; size = 4
___$ReturnUdt$ = 8					; size = 4
_v1$ = 12						; size = 4
_v2$ = 16						; size = 4
??G@YA?AVbtVector3@@ABV0@0@Z PROC			; operator-, COMDAT
; File d:\專題\自建專案\自建專案\src\linearmath\btvector3.h
; Line 785
	push	ebp
	mov	ebp, esp
	sub	esp, 12					; 0000000cH
	mov	DWORD PTR [ebp-12], -858993460		; ccccccccH
	mov	DWORD PTR [ebp-8], -858993460		; ccccccccH
	mov	DWORD PTR [ebp-4], -858993460		; ccccccccH
; Line 798
	mov	eax, DWORD PTR _v1$[ebp]
	mov	ecx, DWORD PTR _v2$[ebp]
	fld	DWORD PTR [eax+8]
	fsub	DWORD PTR [ecx+8]
	fstp	DWORD PTR $T65664[ebp]
	mov	edx, DWORD PTR _v1$[ebp]
	mov	eax, DWORD PTR _v2$[ebp]
	fld	DWORD PTR [edx+4]
	fsub	DWORD PTR [eax+4]
	fstp	DWORD PTR $T65665[ebp]
	mov	ecx, DWORD PTR _v1$[ebp]
	mov	edx, DWORD PTR _v2$[ebp]
	fld	DWORD PTR [ecx]
	fsub	DWORD PTR [edx]
	fstp	DWORD PTR $T65666[ebp]
	lea	eax, DWORD PTR $T65664[ebp]
	push	eax
	lea	ecx, DWORD PTR $T65665[ebp]
	push	ecx
	lea	edx, DWORD PTR $T65666[ebp]
	push	edx
	mov	ecx, DWORD PTR ___$ReturnUdt$[ebp]
	call	??0btVector3@@QAE@ABM00@Z		; btVector3::btVector3
	mov	eax, DWORD PTR ___$ReturnUdt$[ebp]
; Line 800
	add	esp, 12					; 0000000cH
	cmp	ebp, esp
	call	__RTC_CheckEsp
	mov	esp, ebp
	pop	ebp
	ret	0
??G@YA?AVbtVector3@@ABV0@0@Z ENDP			; operator-
; Function compile flags: /Odtp /RTCsu
_TEXT	ENDS
;	COMDAT ??0btVector3@@QAE@ABM00@Z
_TEXT	SEGMENT
_this$ = -4						; size = 4
__x$ = 8						; size = 4
__y$ = 12						; size = 4
__z$ = 16						; size = 4
??0btVector3@@QAE@ABM00@Z PROC				; btVector3::btVector3, COMDAT
; _this$ = ecx
; Line 131
	push	ebp
	mov	ebp, esp
	push	ecx
	mov	DWORD PTR [ebp-4], -858993460		; ccccccccH
	mov	DWORD PTR _this$[ebp], ecx
; Line 133
	mov	eax, DWORD PTR _this$[ebp]
	mov	ecx, DWORD PTR __x$[ebp]
	fld	DWORD PTR [ecx]
	fstp	DWORD PTR [eax]
; Line 134
	mov	edx, DWORD PTR _this$[ebp]
	mov	eax, DWORD PTR __y$[ebp]
	fld	DWORD PTR [eax]
	fstp	DWORD PTR [edx+4]
; Line 135
	mov	ecx, DWORD PTR _this$[ebp]
	mov	edx, DWORD PTR __z$[ebp]
	fld	DWORD PTR [edx]
	fstp	DWORD PTR [ecx+8]
; Line 136
	mov	eax, DWORD PTR _this$[ebp]
	fldz
	fstp	DWORD PTR [eax+12]
; Line 137
	mov	eax, DWORD PTR _this$[ebp]
	mov	esp, ebp
	pop	ebp
	ret	12					; 0000000cH
??0btVector3@@QAE@ABM00@Z ENDP				; btVector3::btVector3
_TEXT	ENDS
PUBLIC	?dot@btVector3@@QBEMABV1@@Z			; btVector3::dot
; Function compile flags: /Odtp /RTCsu
;	COMDAT ?btDot@@YAMABVbtVector3@@0@Z
_TEXT	SEGMENT
_v1$ = 8						; size = 4
_v2$ = 12						; size = 4
?btDot@@YAMABVbtVector3@@0@Z PROC			; btDot, COMDAT
; Line 889
	push	ebp
	mov	ebp, esp
; Line 890
	mov	eax, DWORD PTR _v2$[ebp]
	push	eax
	mov	ecx, DWORD PTR _v1$[ebp]
	call	?dot@btVector3@@QBEMABV1@@Z		; btVector3::dot
; Line 891
	cmp	ebp, esp
	call	__RTC_CheckEsp
	pop	ebp
	ret	0
?btDot@@YAMABVbtVector3@@0@Z ENDP			; btDot
; Function compile flags: /Odtp /RTCsu
_TEXT	ENDS
;	COMDAT ?dot@btVector3@@QBEMABV1@@Z
_TEXT	SEGMENT
_this$ = -4						; size = 4
_v$ = 8							; size = 4
?dot@btVector3@@QBEMABV1@@Z PROC			; btVector3::dot, COMDAT
; _this$ = ecx
; Line 236
	push	ebp
	mov	ebp, esp
	push	ecx
	mov	DWORD PTR [ebp-4], -858993460		; ccccccccH
	mov	DWORD PTR _this$[ebp], ecx
; Line 252
	mov	eax, DWORD PTR _this$[ebp]
	mov	ecx, DWORD PTR _v$[ebp]
	fld	DWORD PTR [eax]
	fmul	DWORD PTR [ecx]
	mov	edx, DWORD PTR _this$[ebp]
	mov	eax, DWORD PTR _v$[ebp]
	fld	DWORD PTR [edx+4]
	fmul	DWORD PTR [eax+4]
	faddp	ST(1), ST(0)
	mov	ecx, DWORD PTR _this$[ebp]
	mov	edx, DWORD PTR _v$[ebp]
	fld	DWORD PTR [ecx+8]
	fmul	DWORD PTR [edx+8]
	faddp	ST(1), ST(0)
; Line 254
	mov	esp, ebp
	pop	ebp
	ret	4
?dot@btVector3@@QBEMABV1@@Z ENDP			; btVector3::dot
_TEXT	ENDS
PUBLIC	?btFabs@@YAMM@Z					; btFabs
PUBLIC	?getY@btVector3@@QBEABMXZ			; btVector3::getY
PUBLIC	?getX@btVector3@@QBEABMXZ			; btVector3::getX
PUBLIC	?cross_2@@YAMAAVbtVector3@@0@Z			; cross_2
; Function compile flags: /Odtp /RTCsu
;	COMDAT ?cross_2@@YAMAAVbtVector3@@0@Z
_TEXT	SEGMENT
tv90 = -4						; size = 4
_a$ = 8							; size = 4
_b$ = 12						; size = 4
?cross_2@@YAMAAVbtVector3@@0@Z PROC			; cross_2, COMDAT
; File d:\專題\自建專案\自建專案\src\bulletsoftbody\btsoftbody.cpp
; Line 66
	push	ebp
	mov	ebp, esp
	push	ecx
	push	esi
	mov	DWORD PTR [ebp-4], -858993460		; ccccccccH
; Line 67
	mov	ecx, DWORD PTR _a$[ebp]
	call	?getX@btVector3@@QBEABMXZ		; btVector3::getX
	mov	esi, eax
	mov	ecx, DWORD PTR _b$[ebp]
	call	?getY@btVector3@@QBEABMXZ		; btVector3::getY
	fld	DWORD PTR [esi]
	fmul	DWORD PTR [eax]
	mov	ecx, DWORD PTR _a$[ebp]
	fstp	DWORD PTR tv90[ebp]
	call	?getY@btVector3@@QBEABMXZ		; btVector3::getY
	mov	esi, eax
	mov	ecx, DWORD PTR _b$[ebp]
	call	?getX@btVector3@@QBEABMXZ		; btVector3::getX
	fld	DWORD PTR [esi]
	fmul	DWORD PTR [eax]
	fsubr	DWORD PTR tv90[ebp]
	push	ecx
	fstp	DWORD PTR [esp]
	call	?btFabs@@YAMM@Z				; btFabs
	add	esp, 4
; Line 68
	pop	esi
	add	esp, 4
	cmp	ebp, esp
	call	__RTC_CheckEsp
	mov	esp, ebp
	pop	ebp
	ret	0
?cross_2@@YAMAAVbtVector3@@0@Z ENDP			; cross_2
_TEXT	ENDS
PUBLIC	_fabsf
; Function compile flags: /Odtp /RTCsu
;	COMDAT ?btFabs@@YAMM@Z
_TEXT	SEGMENT
_x$ = 8							; size = 4
?btFabs@@YAMM@Z PROC					; btFabs, COMDAT
; File d:\專題\自建專案\自建專案\src\linearmath\btscalar.h
; Line 407
	push	ebp
	mov	ebp, esp
	push	ecx
	fld	DWORD PTR _x$[ebp]
	fstp	DWORD PTR [esp]
	call	_fabsf
	add	esp, 4
	cmp	ebp, esp
	call	__RTC_CheckEsp
	pop	ebp
	ret	0
?btFabs@@YAMM@Z ENDP					; btFabs
_TEXT	ENDS
EXTRN	_fabs:PROC
; Function compile flags: /Odtp /RTCsu
;	COMDAT _fabsf
_TEXT	SEGMENT
tv73 = -4						; size = 4
__X$ = 8						; size = 4
_fabsf	PROC						; COMDAT
; File c:\program files (x86)\microsoft visual studio 10.0\vc\include\math.h
; Line 395
	push	ebp
	mov	ebp, esp
	push	ecx
	mov	DWORD PTR [ebp-4], -858993460		; ccccccccH
	fld	DWORD PTR __X$[ebp]
	sub	esp, 8
	fstp	QWORD PTR [esp]
	call	_fabs
	add	esp, 8
	fstp	DWORD PTR tv73[ebp]
	fld	DWORD PTR tv73[ebp]
	add	esp, 4
	cmp	ebp, esp
	call	__RTC_CheckEsp
	mov	esp, ebp
	pop	ebp
	ret	0
_fabsf	ENDP
; Function compile flags: /Odtp /RTCsu
_TEXT	ENDS
;	COMDAT ?getX@btVector3@@QBEABMXZ
_TEXT	SEGMENT
_this$ = -4						; size = 4
?getX@btVector3@@QBEABMXZ PROC				; btVector3::getX, COMDAT
; _this$ = ecx
; File d:\專題\自建專案\自建專案\src\linearmath\btvector3.h
; Line 561
	push	ebp
	mov	ebp, esp
	push	ecx
	mov	DWORD PTR [ebp-4], -858993460		; ccccccccH
	mov	DWORD PTR _this$[ebp], ecx
	mov	eax, DWORD PTR _this$[ebp]
	mov	esp, ebp
	pop	ebp
	ret	0
?getX@btVector3@@QBEABMXZ ENDP				; btVector3::getX
; Function compile flags: /Odtp /RTCsu
_TEXT	ENDS
;	COMDAT ?getY@btVector3@@QBEABMXZ
_TEXT	SEGMENT
_this$ = -4						; size = 4
?getY@btVector3@@QBEABMXZ PROC				; btVector3::getY, COMDAT
; _this$ = ecx
; Line 563
	push	ebp
	mov	ebp, esp
	push	ecx
	mov	DWORD PTR [ebp-4], -858993460		; ccccccccH
	mov	DWORD PTR _this$[ebp], ecx
	mov	eax, DWORD PTR _this$[ebp]
	add	eax, 4
	mov	esp, ebp
	pop	ebp
	ret	0
?getY@btVector3@@QBEABMXZ ENDP				; btVector3::getY
_TEXT	ENDS
PUBLIC	?cross@@YAMAAVbtVector3@@0@Z			; cross
; Function compile flags: /Odtp /RTCsu
;	COMDAT ?cross@@YAMAAVbtVector3@@0@Z
_TEXT	SEGMENT
tv86 = -4						; size = 4
_a$ = 8							; size = 4
_b$ = 12						; size = 4
?cross@@YAMAAVbtVector3@@0@Z PROC			; cross, COMDAT
; File d:\專題\自建專案\自建專案\src\bulletsoftbody\btsoftbody.cpp
; Line 70
	push	ebp
	mov	ebp, esp
	push	ecx
	push	esi
	mov	DWORD PTR [ebp-4], -858993460		; ccccccccH
; Line 71
	mov	ecx, DWORD PTR _a$[ebp]
	call	?getX@btVector3@@QBEABMXZ		; btVector3::getX
	mov	esi, eax
	mov	ecx, DWORD PTR _b$[ebp]
	call	?getY@btVector3@@QBEABMXZ		; btVector3::getY
	fld	DWORD PTR [esi]
	fmul	DWORD PTR [eax]
	mov	ecx, DWORD PTR _a$[ebp]
	fstp	DWORD PTR tv86[ebp]
	call	?getY@btVector3@@QBEABMXZ		; btVector3::getY
	mov	esi, eax
	mov	ecx, DWORD PTR _b$[ebp]
	call	?getX@btVector3@@QBEABMXZ		; btVector3::getX
	fld	DWORD PTR [esi]
	fmul	DWORD PTR [eax]
	fsubr	DWORD PTR tv86[ebp]
; Line 72
	pop	esi
	add	esp, 4
	cmp	ebp, esp
	call	__RTC_CheckEsp
	mov	esp, ebp
	pop	ebp
	ret	0
?cross@@YAMAAVbtVector3@@0@Z ENDP			; cross
_TEXT	ENDS
PUBLIC	?getZ@btVector3@@QBEABMXZ			; btVector3::getZ
PUBLIC	??H@YA?AVbtVector3@@ABV0@0@Z			; operator+
PUBLIC	??K@YA?AVbtVector3@@ABV0@ABM@Z			; operator/
PUBLIC	??D@YA?AVbtVector3@@ABV0@ABM@Z			; operator*
PUBLIC	?getCross@@YA?AVbtVector3@@AAV1@000@Z		; getCross
; Function compile flags: /Odtp /RTCsu
;	COMDAT ?getCross@@YA?AVbtVector3@@AAV1@000@Z
_TEXT	SEGMENT
$T65691 = -212						; size = 4
$T65690 = -208						; size = 4
$T65689 = -204						; size = 4
$T65688 = -200						; size = 4
$T65687 = -196						; size = 4
$T52405 = -192						; size = 16
$T52404 = -176						; size = 16
$T52402 = -160						; size = 16
_Cross$ = -128						; size = 16
_s$ = -96						; size = 16
_b$ = -64						; size = 16
_a$ = -32						; size = 16
___$ReturnUdt$ = 8					; size = 4
_a1$ = 12						; size = 4
_a2$ = 16						; size = 4
_b1$ = 20						; size = 4
_b2$ = 24						; size = 4
?getCross@@YA?AVbtVector3@@AAV1@000@Z PROC		; getCross, COMDAT
; Line 74
	push	ebx
	mov	ebx, esp
	sub	esp, 8
	and	esp, -16				; fffffff0H
	add	esp, 4
	push	ebp
	mov	ebp, DWORD PTR [ebx+4]
	mov	DWORD PTR [esp+4], ebp
	mov	ebp, esp
	sub	esp, 224				; 000000e0H
	push	edi
	lea	edi, DWORD PTR [ebp-224]
	mov	ecx, 56					; 00000038H
	mov	eax, -858993460				; ccccccccH
	rep stosd
; Line 75
	mov	eax, DWORD PTR _a1$[ebx]
	push	eax
	mov	ecx, DWORD PTR _a2$[ebx]
	push	ecx
	lea	edx, DWORD PTR _a$[ebp]
	push	edx
	call	??G@YA?AVbtVector3@@ABV0@0@Z		; operator-
	add	esp, 12					; 0000000cH
	mov	eax, DWORD PTR _b1$[ebx]
	push	eax
	mov	ecx, DWORD PTR _b2$[ebx]
	push	ecx
	lea	edx, DWORD PTR _b$[ebp]
	push	edx
	call	??G@YA?AVbtVector3@@ABV0@0@Z		; operator-
	add	esp, 12					; 0000000cH
	mov	eax, DWORD PTR _a1$[ebx]
	push	eax
	mov	ecx, DWORD PTR _b1$[ebx]
	push	ecx
	lea	edx, DWORD PTR _s$[ebp]
	push	edx
	call	??G@YA?AVbtVector3@@ABV0@0@Z		; operator-
	add	esp, 12					; 0000000cH
; Line 76
	fldz
	fstp	DWORD PTR $T65687[ebp]
	fldz
	fstp	DWORD PTR $T65688[ebp]
	fldz
	fstp	DWORD PTR $T65689[ebp]
	lea	eax, DWORD PTR $T65687[ebp]
	push	eax
	lea	ecx, DWORD PTR $T65688[ebp]
	push	ecx
	lea	edx, DWORD PTR $T65689[ebp]
	push	edx
	lea	ecx, DWORD PTR _Cross$[ebp]
	call	??0btVector3@@QAE@ABM00@Z		; btVector3::btVector3
; Line 77
	lea	eax, DWORD PTR _b$[ebp]
	push	eax
	lea	ecx, DWORD PTR _a$[ebp]
	push	ecx
	call	?cross@@YAMAAVbtVector3@@0@Z		; cross
	add	esp, 8
	fldz
	fucompp
	fnstsw	ax
	test	ah, 68					; 00000044H
	jp	SHORT $LN2@getCross
; Line 78
	jmp	$LN1@getCross
$LN2@getCross:
; Line 79
	lea	edx, DWORD PTR _b$[ebp]
	push	edx
	lea	eax, DWORD PTR _a$[ebp]
	push	eax
	call	?cross@@YAMAAVbtVector3@@0@Z		; cross
	add	esp, 8
	fstp	DWORD PTR $T65690[ebp]
	lea	ecx, DWORD PTR _b$[ebp]
	push	ecx
	lea	edx, DWORD PTR _s$[ebp]
	push	edx
	call	?cross@@YAMAAVbtVector3@@0@Z		; cross
	add	esp, 8
	fstp	DWORD PTR $T65691[ebp]
	lea	eax, DWORD PTR $T65690[ebp]
	push	eax
	lea	ecx, DWORD PTR $T65691[ebp]
	push	ecx
	lea	edx, DWORD PTR _a$[ebp]
	push	edx
	lea	eax, DWORD PTR $T52402[ebp]
	push	eax
	call	??D@YA?AVbtVector3@@ABV0@ABM@Z		; operator*
	add	esp, 12					; 0000000cH
	push	eax
	lea	ecx, DWORD PTR $T52404[ebp]
	push	ecx
	call	??K@YA?AVbtVector3@@ABV0@ABM@Z		; operator/
	add	esp, 12					; 0000000cH
	push	eax
	mov	edx, DWORD PTR _a1$[ebx]
	push	edx
	lea	eax, DWORD PTR $T52405[ebp]
	push	eax
	call	??H@YA?AVbtVector3@@ABV0@0@Z		; operator+
	add	esp, 12					; 0000000cH
	mov	ecx, DWORD PTR [eax]
	mov	DWORD PTR _Cross$[ebp], ecx
	mov	edx, DWORD PTR [eax+4]
	mov	DWORD PTR _Cross$[ebp+4], edx
	mov	ecx, DWORD PTR [eax+8]
	mov	DWORD PTR _Cross$[ebp+8], ecx
	mov	edx, DWORD PTR [eax+12]
	mov	DWORD PTR _Cross$[ebp+12], edx
	mov	ecx, DWORD PTR _a1$[ebx]
	call	?getZ@btVector3@@QBEABMXZ		; btVector3::getZ
$LN1@getCross:
; Line 81
	mov	eax, DWORD PTR ___$ReturnUdt$[ebx]
	mov	ecx, DWORD PTR _Cross$[ebp]
	mov	DWORD PTR [eax], ecx
	mov	edx, DWORD PTR _Cross$[ebp+4]
	mov	DWORD PTR [eax+4], edx
	mov	ecx, DWORD PTR _Cross$[ebp+8]
	mov	DWORD PTR [eax+8], ecx
	mov	edx, DWORD PTR _Cross$[ebp+12]
	mov	DWORD PTR [eax+12], edx
	mov	eax, DWORD PTR ___$ReturnUdt$[ebx]
; Line 82
	push	edx
	mov	ecx, ebp
	push	eax
	lea	edx, DWORD PTR $LN10@getCross
	call	@_RTC_CheckStackVars@8
	pop	eax
	pop	edx
	pop	edi
	mov	esp, ebp
	pop	ebp
	mov	esp, ebx
	pop	ebx
	ret	0
	npad	2
$LN10@getCross:
	DD	4
	DD	$LN9@getCross
$LN9@getCross:
	DD	-32					; ffffffe0H
	DD	16					; 00000010H
	DD	$LN5@getCross
	DD	-64					; ffffffc0H
	DD	16					; 00000010H
	DD	$LN6@getCross
	DD	-96					; ffffffa0H
	DD	16					; 00000010H
	DD	$LN7@getCross
	DD	-128					; ffffff80H
	DD	16					; 00000010H
	DD	$LN8@getCross
$LN8@getCross:
	DB	67					; 00000043H
	DB	114					; 00000072H
	DB	111					; 0000006fH
	DB	115					; 00000073H
	DB	115					; 00000073H
	DB	0
$LN7@getCross:
	DB	115					; 00000073H
	DB	0
$LN6@getCross:
	DB	98					; 00000062H
	DB	0
$LN5@getCross:
	DB	97					; 00000061H
	DB	0
?getCross@@YA?AVbtVector3@@AAV1@000@Z ENDP		; getCross
; Function compile flags: /Odtp /RTCsu
_TEXT	ENDS
;	COMDAT ?getZ@btVector3@@QBEABMXZ
_TEXT	SEGMENT
_this$ = -4						; size = 4
?getZ@btVector3@@QBEABMXZ PROC				; btVector3::getZ, COMDAT
; _this$ = ecx
; File d:\專題\自建專案\自建專案\src\linearmath\btvector3.h
; Line 565
	push	ebp
	mov	ebp, esp
	push	ecx
	mov	DWORD PTR [ebp-4], -858993460		; ccccccccH
	mov	DWORD PTR _this$[ebp], ecx
	mov	eax, DWORD PTR _this$[ebp]
	add	eax, 8
	mov	esp, ebp
	pop	ebp
	ret	0
?getZ@btVector3@@QBEABMXZ ENDP				; btVector3::getZ
; Function compile flags: /Odtp /RTCsu
_TEXT	ENDS
;	COMDAT ??H@YA?AVbtVector3@@ABV0@0@Z
_TEXT	SEGMENT
$T65704 = -12						; size = 4
$T65703 = -8						; size = 4
$T65702 = -4						; size = 4
___$ReturnUdt$ = 8					; size = 4
_v1$ = 12						; size = 4
_v2$ = 16						; size = 4
??H@YA?AVbtVector3@@ABV0@0@Z PROC			; operator+, COMDAT
; Line 753
	push	ebp
	mov	ebp, esp
	sub	esp, 12					; 0000000cH
	mov	DWORD PTR [ebp-12], -858993460		; ccccccccH
	mov	DWORD PTR [ebp-8], -858993460		; ccccccccH
	mov	DWORD PTR [ebp-4], -858993460		; ccccccccH
; Line 762
	mov	eax, DWORD PTR _v1$[ebp]
	mov	ecx, DWORD PTR _v2$[ebp]
	fld	DWORD PTR [eax+8]
	fadd	DWORD PTR [ecx+8]
	fstp	DWORD PTR $T65702[ebp]
	mov	edx, DWORD PTR _v1$[ebp]
	mov	eax, DWORD PTR _v2$[ebp]
	fld	DWORD PTR [edx+4]
	fadd	DWORD PTR [eax+4]
	fstp	DWORD PTR $T65703[ebp]
	mov	ecx, DWORD PTR _v1$[ebp]
	mov	edx, DWORD PTR _v2$[ebp]
	fld	DWORD PTR [ecx]
	fadd	DWORD PTR [edx]
	fstp	DWORD PTR $T65704[ebp]
	lea	eax, DWORD PTR $T65702[ebp]
	push	eax
	lea	ecx, DWORD PTR $T65703[ebp]
	push	ecx
	lea	edx, DWORD PTR $T65704[ebp]
	push	edx
	mov	ecx, DWORD PTR ___$ReturnUdt$[ebp]
	call	??0btVector3@@QAE@ABM00@Z		; btVector3::btVector3
	mov	eax, DWORD PTR ___$ReturnUdt$[ebp]
; Line 764
	add	esp, 12					; 0000000cH
	cmp	ebp, esp
	call	__RTC_CheckEsp
	mov	esp, ebp
	pop	ebp
	ret	0
??H@YA?AVbtVector3@@ABV0@0@Z ENDP			; operator+
; Function compile flags: /Odtp /RTCsu
_TEXT	ENDS
;	COMDAT ??D@YA?AVbtVector3@@ABV0@ABM@Z
_TEXT	SEGMENT
$T65709 = -12						; size = 4
$T65708 = -8						; size = 4
$T65707 = -4						; size = 4
___$ReturnUdt$ = 8					; size = 4
_v$ = 12						; size = 4
_s$ = 16						; size = 4
??D@YA?AVbtVector3@@ABV0@ABM@Z PROC			; operator*, COMDAT
; Line 819
	push	ebp
	mov	ebp, esp
	sub	esp, 12					; 0000000cH
	mov	DWORD PTR [ebp-12], -858993460		; ccccccccH
	mov	DWORD PTR [ebp-8], -858993460		; ccccccccH
	mov	DWORD PTR [ebp-4], -858993460		; ccccccccH
; Line 828
	mov	eax, DWORD PTR _v$[ebp]
	mov	ecx, DWORD PTR _s$[ebp]
	fld	DWORD PTR [eax+8]
	fmul	DWORD PTR [ecx]
	fstp	DWORD PTR $T65707[ebp]
	mov	edx, DWORD PTR _v$[ebp]
	mov	eax, DWORD PTR _s$[ebp]
	fld	DWORD PTR [edx+4]
	fmul	DWORD PTR [eax]
	fstp	DWORD PTR $T65708[ebp]
	mov	ecx, DWORD PTR _v$[ebp]
	mov	edx, DWORD PTR _s$[ebp]
	fld	DWORD PTR [ecx]
	fmul	DWORD PTR [edx]
	fstp	DWORD PTR $T65709[ebp]
	lea	eax, DWORD PTR $T65707[ebp]
	push	eax
	lea	ecx, DWORD PTR $T65708[ebp]
	push	ecx
	lea	edx, DWORD PTR $T65709[ebp]
	push	edx
	mov	ecx, DWORD PTR ___$ReturnUdt$[ebp]
	call	??0btVector3@@QAE@ABM00@Z		; btVector3::btVector3
	mov	eax, DWORD PTR ___$ReturnUdt$[ebp]
; Line 830
	add	esp, 12					; 0000000cH
	cmp	ebp, esp
	call	__RTC_CheckEsp
	mov	esp, ebp
	pop	ebp
	ret	0
??D@YA?AVbtVector3@@ABV0@ABM@Z ENDP			; operator*
; Function compile flags: /Odtp /RTCsu
_TEXT	ENDS
;	COMDAT ??K@YA?AVbtVector3@@ABV0@ABM@Z
_TEXT	SEGMENT
$T65712 = -4						; size = 4
___$ReturnUdt$ = 8					; size = 4
_v$ = 12						; size = 4
_s$ = 16						; size = 4
??K@YA?AVbtVector3@@ABV0@ABM@Z PROC			; operator/, COMDAT
; Line 842
	push	ebp
	mov	ebp, esp
	push	ecx
	mov	DWORD PTR [ebp-4], -858993460		; ccccccccH
; Line 852
	mov	eax, DWORD PTR _s$[ebp]
	fld1
	fdiv	DWORD PTR [eax]
	fstp	DWORD PTR $T65712[ebp]
	lea	ecx, DWORD PTR $T65712[ebp]
	push	ecx
	mov	edx, DWORD PTR _v$[ebp]
	push	edx
	mov	eax, DWORD PTR ___$ReturnUdt$[ebp]
	push	eax
	call	??D@YA?AVbtVector3@@ABV0@ABM@Z		; operator*
	add	esp, 12					; 0000000cH
	mov	eax, DWORD PTR ___$ReturnUdt$[ebp]
; Line 854
	add	esp, 4
	cmp	ebp, esp
	call	__RTC_CheckEsp
	mov	esp, ebp
	pop	ebp
	ret	0
??K@YA?AVbtVector3@@ABV0@ABM@Z ENDP			; operator/
_TEXT	ENDS
PUBLIC	?getab@@YA?AVbtVector3@@AAV1@0@Z		; getab
; Function compile flags: /Odtp /RTCsu
;	COMDAT ?getab@@YA?AVbtVector3@@AAV1@0@Z
_TEXT	SEGMENT
tv148 = -60						; size = 4
$T65715 = -56						; size = 4
_ab$ = -48						; size = 16
_b$ = -20						; size = 4
_a$ = -8						; size = 4
___$ReturnUdt$ = 8					; size = 4
_line1_a$ = 12						; size = 4
_line1_b$ = 16						; size = 4
?getab@@YA?AVbtVector3@@AAV1@0@Z PROC			; getab, COMDAT
; File d:\專題\自建專案\自建專案\src\bulletsoftbody\btsoftbody.cpp
; Line 85
	push	ebx
	mov	ebx, esp
	sub	esp, 8
	and	esp, -16				; fffffff0H
	add	esp, 4
	push	ebp
	mov	ebp, DWORD PTR [ebx+4]
	mov	DWORD PTR [esp+4], ebp
	mov	ebp, esp
	sub	esp, 60					; 0000003cH
	push	esi
	push	edi
	lea	edi, DWORD PTR [ebp-60]
	mov	ecx, 15					; 0000000fH
	mov	eax, -858993460				; ccccccccH
	rep stosd
; Line 88
	mov	ecx, DWORD PTR _line1_a$[ebx]
	call	?getY@btVector3@@QBEABMXZ		; btVector3::getY
	mov	esi, eax
	mov	ecx, DWORD PTR _line1_b$[ebx]
	call	?getY@btVector3@@QBEABMXZ		; btVector3::getY
	fld	DWORD PTR [esi]
	fsub	DWORD PTR [eax]
	mov	ecx, DWORD PTR _line1_a$[ebx]
	fstp	DWORD PTR tv148[ebp]
	call	?getX@btVector3@@QBEABMXZ		; btVector3::getX
	mov	esi, eax
	mov	ecx, DWORD PTR _line1_b$[ebx]
	call	?getX@btVector3@@QBEABMXZ		; btVector3::getX
	fld	DWORD PTR [esi]
	fsub	DWORD PTR [eax]
	fdivr	DWORD PTR tv148[ebp]
	fstp	DWORD PTR _a$[ebp]
; Line 89
	mov	ecx, DWORD PTR _line1_a$[ebx]
	call	?getY@btVector3@@QBEABMXZ		; btVector3::getY
	mov	esi, eax
	mov	ecx, DWORD PTR _line1_a$[ebx]
	call	?getX@btVector3@@QBEABMXZ		; btVector3::getX
	fld	DWORD PTR [eax]
	fmul	DWORD PTR _a$[ebp]
	fsubr	DWORD PTR [esi]
	fstp	DWORD PTR _b$[ebp]
; Line 90
	fldz
	fstp	DWORD PTR $T65715[ebp]
	lea	eax, DWORD PTR $T65715[ebp]
	push	eax
	lea	ecx, DWORD PTR _b$[ebp]
	push	ecx
	lea	edx, DWORD PTR _a$[ebp]
	push	edx
	lea	ecx, DWORD PTR _ab$[ebp]
	call	??0btVector3@@QAE@ABM00@Z		; btVector3::btVector3
; Line 91
	mov	eax, DWORD PTR ___$ReturnUdt$[ebx]
	mov	ecx, DWORD PTR _ab$[ebp]
	mov	DWORD PTR [eax], ecx
	mov	edx, DWORD PTR _ab$[ebp+4]
	mov	DWORD PTR [eax+4], edx
	mov	ecx, DWORD PTR _ab$[ebp+8]
	mov	DWORD PTR [eax+8], ecx
	mov	edx, DWORD PTR _ab$[ebp+12]
	mov	DWORD PTR [eax+12], edx
	mov	eax, DWORD PTR ___$ReturnUdt$[ebx]
; Line 92
	push	edx
	mov	ecx, ebp
	push	eax
	lea	edx, DWORD PTR $LN7@getab
	call	@_RTC_CheckStackVars@8
	pop	eax
	pop	edx
	pop	edi
	pop	esi
	mov	esp, ebp
	pop	ebp
	mov	esp, ebx
	pop	ebx
	ret	0
	npad	1
$LN7@getab:
	DD	3
	DD	$LN6@getab
$LN6@getab:
	DD	-8					; fffffff8H
	DD	4
	DD	$LN3@getab
	DD	-20					; ffffffecH
	DD	4
	DD	$LN4@getab
	DD	-48					; ffffffd0H
	DD	16					; 00000010H
	DD	$LN5@getab
$LN5@getab:
	DB	97					; 00000061H
	DB	98					; 00000062H
	DB	0
$LN4@getab:
	DB	98					; 00000062H
	DB	0
$LN3@getab:
	DB	97					; 00000061H
	DB	0
?getab@@YA?AVbtVector3@@AAV1@0@Z ENDP			; getab
_TEXT	ENDS
PUBLIC	?range@@YAMMMMMMM@Z				; range
; Function compile flags: /Odtp /RTCsu
;	COMDAT ?range@@YAMMMMMMM@Z
_TEXT	SEGMENT
_t$ = -4						; size = 4
_u$ = 8							; size = 4
_v$ = 12						; size = 4
_a$ = 16						; size = 4
_b$ = 20						; size = 4
_c$ = 24						; size = 4
_d$ = 28						; size = 4
?range@@YAMMMMMMM@Z PROC				; range, COMDAT
; Line 94
	push	ebp
	mov	ebp, esp
	push	ecx
	mov	DWORD PTR [ebp-4], -858993460		; ccccccccH
; Line 96
	fld	DWORD PTR _c$[ebp]
	fmul	DWORD PTR _u$[ebp]
	fadd	DWORD PTR _v$[ebp]
	fsub	DWORD PTR _d$[ebp]
	fld	DWORD PTR _b$[ebp]
	fsub	DWORD PTR _d$[ebp]
	fld	DWORD PTR _a$[ebp]
	fsub	DWORD PTR _c$[ebp]
	fmul	DWORD PTR _u$[ebp]
	fsubp	ST(1), ST(0)
	fdivp	ST(1), ST(0)
	fstp	DWORD PTR _t$[ebp]
; Line 97
	fld	DWORD PTR _t$[ebp]
; Line 98
	mov	esp, ebp
	pop	ebp
	ret	0
?range@@YAMMMMMMM@Z ENDP				; range
_TEXT	ENDS
PUBLIC	?getabc@@YA?AVbtVector3@@AAV1@0@Z		; getabc
; Function compile flags: /Odtp /RTCsu
;	COMDAT ?getabc@@YA?AVbtVector3@@AAV1@0@Z
_TEXT	SEGMENT
tv159 = -72						; size = 4
_abc$ = -64						; size = 16
_b$ = -32						; size = 4
_c$ = -20						; size = 4
_a$ = -8						; size = 4
___$ReturnUdt$ = 8					; size = 4
_line1_a$ = 12						; size = 4
_line1_b$ = 16						; size = 4
?getabc@@YA?AVbtVector3@@AAV1@0@Z PROC			; getabc, COMDAT
; Line 101
	push	ebx
	mov	ebx, esp
	sub	esp, 8
	and	esp, -16				; fffffff0H
	add	esp, 4
	push	ebp
	mov	ebp, DWORD PTR [ebx+4]
	mov	DWORD PTR [esp+4], ebp
	mov	ebp, esp
	sub	esp, 76					; 0000004cH
	push	esi
	push	edi
	lea	edi, DWORD PTR [ebp-76]
	mov	ecx, 19					; 00000013H
	mov	eax, -858993460				; ccccccccH
	rep stosd
; Line 103
	mov	ecx, DWORD PTR _line1_a$[ebx]
	call	?getY@btVector3@@QBEABMXZ		; btVector3::getY
	mov	esi, eax
	mov	ecx, DWORD PTR _line1_b$[ebx]
	call	?getY@btVector3@@QBEABMXZ		; btVector3::getY
	fld	DWORD PTR [esi]
	fsub	DWORD PTR [eax]
	fstp	DWORD PTR _a$[ebp]
; Line 104
	mov	ecx, DWORD PTR _line1_a$[ebx]
	call	?getY@btVector3@@QBEABMXZ		; btVector3::getY
	mov	esi, eax
	mov	ecx, DWORD PTR _line1_a$[ebx]
	call	?getX@btVector3@@QBEABMXZ		; btVector3::getX
	fld	DWORD PTR [eax]
	fmul	DWORD PTR _a$[ebp]
	fsubr	DWORD PTR [esi]
	mov	ecx, DWORD PTR _line1_a$[ebx]
	fstp	DWORD PTR tv159[ebp]
	call	?getX@btVector3@@QBEABMXZ		; btVector3::getX
	mov	esi, eax
	mov	ecx, DWORD PTR _line1_b$[ebx]
	call	?getX@btVector3@@QBEABMXZ		; btVector3::getX
	fld	DWORD PTR [esi]
	fsub	DWORD PTR [eax]
	fmul	DWORD PTR tv159[ebp]
	fstp	DWORD PTR _c$[ebp]
; Line 105
	mov	ecx, DWORD PTR _line1_a$[ebx]
	call	?getX@btVector3@@QBEABMXZ		; btVector3::getX
	mov	esi, eax
	mov	ecx, DWORD PTR _line1_b$[ebx]
	call	?getX@btVector3@@QBEABMXZ		; btVector3::getX
	fld	DWORD PTR [esi]
	fsub	DWORD PTR [eax]
	fstp	DWORD PTR _b$[ebp]
; Line 107
	lea	eax, DWORD PTR _c$[ebp]
	push	eax
	lea	ecx, DWORD PTR _b$[ebp]
	push	ecx
	lea	edx, DWORD PTR _a$[ebp]
	push	edx
	lea	ecx, DWORD PTR _abc$[ebp]
	call	??0btVector3@@QAE@ABM00@Z		; btVector3::btVector3
; Line 108
	mov	eax, DWORD PTR ___$ReturnUdt$[ebx]
	mov	ecx, DWORD PTR _abc$[ebp]
	mov	DWORD PTR [eax], ecx
	mov	edx, DWORD PTR _abc$[ebp+4]
	mov	DWORD PTR [eax+4], edx
	mov	ecx, DWORD PTR _abc$[ebp+8]
	mov	DWORD PTR [eax+8], ecx
	mov	edx, DWORD PTR _abc$[ebp+12]
	mov	DWORD PTR [eax+12], edx
	mov	eax, DWORD PTR ___$ReturnUdt$[ebx]
; Line 109
	push	edx
	mov	ecx, ebp
	push	eax
	lea	edx, DWORD PTR $LN8@getabc
	call	@_RTC_CheckStackVars@8
	pop	eax
	pop	edx
	pop	edi
	pop	esi
	mov	esp, ebp
	pop	ebp
	mov	esp, ebx
	pop	ebx
	ret	0
	npad	1
$LN8@getabc:
	DD	4
	DD	$LN7@getabc
$LN7@getabc:
	DD	-8					; fffffff8H
	DD	4
	DD	$LN3@getabc
	DD	-20					; ffffffecH
	DD	4
	DD	$LN4@getabc
	DD	-32					; ffffffe0H
	DD	4
	DD	$LN5@getabc
	DD	-64					; ffffffc0H
	DD	16					; 00000010H
	DD	$LN6@getabc
$LN6@getabc:
	DB	97					; 00000061H
	DB	98					; 00000062H
	DB	99					; 00000063H
	DB	0
$LN5@getabc:
	DB	98					; 00000062H
	DB	0
$LN4@getabc:
	DB	99					; 00000063H
	DB	0
$LN3@getabc:
	DB	97					; 00000061H
	DB	0
?getabc@@YA?AVbtVector3@@AAV1@0@Z ENDP			; getabc
_TEXT	ENDS
PUBLIC	?sqrt@@YAMM@Z					; sqrt
PUBLIC	?fabs@@YAMM@Z					; fabs
PUBLIC	?dis@@YAMAAVbtVector3@@00@Z			; dis
; Function compile flags: /Odtp /RTCsu
;	COMDAT ?dis@@YAMAAVbtVector3@@00@Z
_TEXT	SEGMENT
tv147 = -60						; size = 4
tv145 = -56						; size = 4
_abc$ = -48						; size = 16
_d$ = -16						; size = 4
_c$ = -12						; size = 4
_b$ = -8						; size = 4
_a$ = -4						; size = 4
_point$ = 8						; size = 4
_line1_a$ = 12						; size = 4
_line1_b$ = 16						; size = 4
?dis@@YAMAAVbtVector3@@00@Z PROC			; dis, COMDAT
; Line 112
	push	ebx
	mov	ebx, esp
	sub	esp, 8
	and	esp, -16				; fffffff0H
	add	esp, 4
	push	ebp
	mov	ebp, DWORD PTR [ebx+4]
	mov	DWORD PTR [esp+4], ebp
	mov	ebp, esp
	sub	esp, 64					; 00000040H
	push	edi
	lea	edi, DWORD PTR [ebp-64]
	mov	ecx, 16					; 00000010H
	mov	eax, -858993460				; ccccccccH
	rep stosd
; Line 114
	mov	eax, DWORD PTR _line1_b$[ebx]
	push	eax
	mov	ecx, DWORD PTR _line1_a$[ebx]
	push	ecx
	lea	edx, DWORD PTR _abc$[ebp]
	push	edx
	call	?getabc@@YA?AVbtVector3@@AAV1@0@Z	; getabc
	add	esp, 12					; 0000000cH
; Line 115
	lea	ecx, DWORD PTR _abc$[ebp]
	call	?getX@btVector3@@QBEABMXZ		; btVector3::getX
	fld	DWORD PTR [eax]
	fstp	DWORD PTR _a$[ebp]
; Line 116
	lea	ecx, DWORD PTR _abc$[ebp]
	call	?getY@btVector3@@QBEABMXZ		; btVector3::getY
	fld	DWORD PTR [eax]
	fstp	DWORD PTR _b$[ebp]
; Line 117
	lea	ecx, DWORD PTR _abc$[ebp]
	call	?getZ@btVector3@@QBEABMXZ		; btVector3::getZ
	fld	DWORD PTR [eax]
	fstp	DWORD PTR _c$[ebp]
; Line 119
	mov	ecx, DWORD PTR _point$[ebx]
	call	?getY@btVector3@@QBEABMXZ		; btVector3::getY
	fld	DWORD PTR _b$[ebp]
	fmul	DWORD PTR [eax]
	mov	ecx, DWORD PTR _point$[ebx]
	fstp	DWORD PTR tv145[ebp]
	call	?getX@btVector3@@QBEABMXZ		; btVector3::getX
	fld	DWORD PTR _a$[ebp]
	fmul	DWORD PTR [eax]
	fsubr	DWORD PTR tv145[ebp]
	fsub	DWORD PTR _c$[ebp]
	push	ecx
	fstp	DWORD PTR [esp]
	call	?fabs@@YAMM@Z				; fabs
	add	esp, 4
	fld	DWORD PTR _a$[ebp]
	fmul	DWORD PTR _a$[ebp]
	fld	DWORD PTR _b$[ebp]
	fmul	DWORD PTR _b$[ebp]
	faddp	ST(1), ST(0)
	push	ecx
	fstp	DWORD PTR [esp]
	fstp	DWORD PTR tv147[ebp]
	call	?sqrt@@YAMM@Z				; sqrt
	add	esp, 4
	fdivr	DWORD PTR tv147[ebp]
	fstp	DWORD PTR _d$[ebp]
; Line 121
	fld	DWORD PTR _d$[ebp]
; Line 122
	push	edx
	mov	ecx, ebp
	push	eax
	lea	edx, DWORD PTR $LN5@dis
	call	@_RTC_CheckStackVars@8
	pop	eax
	pop	edx
	pop	edi
	mov	esp, ebp
	pop	ebp
	mov	esp, ebx
	pop	ebx
	ret	0
	npad	2
$LN5@dis:
	DD	1
	DD	$LN4@dis
$LN4@dis:
	DD	-48					; ffffffd0H
	DD	16					; 00000010H
	DD	$LN3@dis
$LN3@dis:
	DB	97					; 00000061H
	DB	98					; 00000062H
	DB	99					; 00000063H
	DB	0
?dis@@YAMAAVbtVector3@@00@Z ENDP			; dis
; Function compile flags: /Odtp /RTCsu
_TEXT	ENDS
;	COMDAT ?fabs@@YAMM@Z
_TEXT	SEGMENT
__X$ = 8						; size = 4
?fabs@@YAMM@Z PROC					; fabs, COMDAT
; File c:\program files (x86)\microsoft visual studio 10.0\vc\include\math.h
; Line 518
	push	ebp
	mov	ebp, esp
	push	ecx
	fld	DWORD PTR __X$[ebp]
	fstp	DWORD PTR [esp]
	call	_fabsf
	add	esp, 4
	cmp	ebp, esp
	call	__RTC_CheckEsp
	pop	ebp
	ret	0
?fabs@@YAMM@Z ENDP					; fabs
_TEXT	ENDS
PUBLIC	_sqrtf
; Function compile flags: /Odtp /RTCsu
;	COMDAT ?sqrt@@YAMM@Z
_TEXT	SEGMENT
__X$ = 8						; size = 4
?sqrt@@YAMM@Z PROC					; sqrt, COMDAT
; Line 542
	push	ebp
	mov	ebp, esp
	push	ecx
	fld	DWORD PTR __X$[ebp]
	fstp	DWORD PTR [esp]
	call	_sqrtf
	add	esp, 4
	cmp	ebp, esp
	call	__RTC_CheckEsp
	pop	ebp
	ret	0
?sqrt@@YAMM@Z ENDP					; sqrt
_TEXT	ENDS
EXTRN	_sqrt:PROC
; Function compile flags: /Odtp /RTCsu
;	COMDAT _sqrtf
_TEXT	SEGMENT
tv73 = -4						; size = 4
__X$ = 8						; size = 4
_sqrtf	PROC						; COMDAT
; Line 434
	push	ebp
	mov	ebp, esp
	push	ecx
	mov	DWORD PTR [ebp-4], -858993460		; ccccccccH
	fld	DWORD PTR __X$[ebp]
	sub	esp, 8
	fstp	QWORD PTR [esp]
	call	_sqrt
	add	esp, 8
	fstp	DWORD PTR tv73[ebp]
	fld	DWORD PTR tv73[ebp]
	add	esp, 4
	cmp	ebp, esp
	call	__RTC_CheckEsp
	mov	esp, ebp
	pop	ebp
	ret	0
_sqrtf	ENDP
_TEXT	ENDS
PUBLIC	?xmult@@YANAAVbtVector3@@00@Z			; xmult
; Function compile flags: /Odtp /RTCsu
;	COMDAT ?xmult@@YANAAVbtVector3@@00@Z
_TEXT	SEGMENT
tv146 = -12						; size = 4
tv144 = -8						; size = 4
tv142 = -4						; size = 4
_p1$ = 8						; size = 4
_p2$ = 12						; size = 4
_p0$ = 16						; size = 4
?xmult@@YANAAVbtVector3@@00@Z PROC			; xmult, COMDAT
; File d:\專題\自建專案\自建專案\src\bulletsoftbody\btsoftbody.cpp
; Line 125
	push	ebp
	mov	ebp, esp
	sub	esp, 12					; 0000000cH
	push	esi
	mov	DWORD PTR [ebp-12], -858993460		; ccccccccH
	mov	DWORD PTR [ebp-8], -858993460		; ccccccccH
	mov	DWORD PTR [ebp-4], -858993460		; ccccccccH
; Line 126
	mov	ecx, DWORD PTR _p1$[ebp]
	call	?getX@btVector3@@QBEABMXZ		; btVector3::getX
	mov	esi, eax
	mov	ecx, DWORD PTR _p0$[ebp]
	call	?getX@btVector3@@QBEABMXZ		; btVector3::getX
	fld	DWORD PTR [esi]
	fsub	DWORD PTR [eax]
	mov	ecx, DWORD PTR _p2$[ebp]
	fstp	DWORD PTR tv142[ebp]
	call	?getY@btVector3@@QBEABMXZ		; btVector3::getY
	mov	esi, eax
	mov	ecx, DWORD PTR _p0$[ebp]
	call	?getY@btVector3@@QBEABMXZ		; btVector3::getY
	fld	DWORD PTR [esi]
	fsub	DWORD PTR [eax]
	fmul	DWORD PTR tv142[ebp]
	mov	ecx, DWORD PTR _p2$[ebp]
	fstp	DWORD PTR tv144[ebp]
	call	?getX@btVector3@@QBEABMXZ		; btVector3::getX
	mov	esi, eax
	mov	ecx, DWORD PTR _p0$[ebp]
	call	?getX@btVector3@@QBEABMXZ		; btVector3::getX
	fld	DWORD PTR [esi]
	fsub	DWORD PTR [eax]
	mov	ecx, DWORD PTR _p1$[ebp]
	fstp	DWORD PTR tv146[ebp]
	call	?getY@btVector3@@QBEABMXZ		; btVector3::getY
	mov	esi, eax
	mov	ecx, DWORD PTR _p0$[ebp]
	call	?getY@btVector3@@QBEABMXZ		; btVector3::getY
	fld	DWORD PTR [esi]
	fsub	DWORD PTR [eax]
	fmul	DWORD PTR tv146[ebp]
	fsubr	DWORD PTR tv144[ebp]
; Line 127
	pop	esi
	add	esp, 12					; 0000000cH
	cmp	ebp, esp
	call	__RTC_CheckEsp
	mov	esp, ebp
	pop	ebp
	ret	0
?xmult@@YANAAVbtVector3@@00@Z ENDP			; xmult
_TEXT	ENDS
PUBLIC	__real@3e45798ee2308c3a
PUBLIC	__real@0000000000000000
PUBLIC	?dot_online_in@@YAHAAVbtVector3@@00@Z		; dot_online_in
;	COMDAT __real@3e45798ee2308c3a
CONST	SEGMENT
__real@3e45798ee2308c3a DQ 03e45798ee2308c3ar	; 1e-008
CONST	ENDS
;	COMDAT __real@0000000000000000
CONST	SEGMENT
__real@0000000000000000 DQ 00000000000000000r	; 0
; Function compile flags: /Odtp /RTCsu
CONST	ENDS
;	COMDAT ?dot_online_in@@YAHAAVbtVector3@@00@Z
_TEXT	SEGMENT
tv145 = -20						; size = 4
tv198 = -16						; size = 4
tv196 = -12						; size = 4
tv81 = -8						; size = 8
_p$ = 8							; size = 4
_l1$ = 12						; size = 4
_l2$ = 16						; size = 4
?dot_online_in@@YAHAAVbtVector3@@00@Z PROC		; dot_online_in, COMDAT
; Line 131
	push	ebp
	mov	ebp, esp
	sub	esp, 20					; 00000014H
	push	esi
	mov	eax, -858993460				; ccccccccH
	mov	DWORD PTR [ebp-20], eax
	mov	DWORD PTR [ebp-16], eax
	mov	DWORD PTR [ebp-12], eax
	mov	DWORD PTR [ebp-8], eax
	mov	DWORD PTR [ebp-4], eax
; Line 132
	mov	eax, DWORD PTR _l2$[ebp]
	push	eax
	mov	ecx, DWORD PTR _l1$[ebp]
	push	ecx
	mov	edx, DWORD PTR _p$[ebp]
	push	edx
	call	?xmult@@YANAAVbtVector3@@00@Z		; xmult
	add	esp, 12					; 0000000cH
	fcomp	QWORD PTR __real@0000000000000000
	fnstsw	ax
	test	ah, 65					; 00000041H
	jne	SHORT $LN3@dot_online
	mov	eax, DWORD PTR _l2$[ebp]
	push	eax
	mov	ecx, DWORD PTR _l1$[ebp]
	push	ecx
	mov	edx, DWORD PTR _p$[ebp]
	push	edx
	call	?xmult@@YANAAVbtVector3@@00@Z		; xmult
	add	esp, 12					; 0000000cH
	fstp	QWORD PTR tv81[ebp]
	jmp	SHORT $LN4@dot_online
$LN3@dot_online:
	mov	eax, DWORD PTR _l2$[ebp]
	push	eax
	mov	ecx, DWORD PTR _l1$[ebp]
	push	ecx
	mov	edx, DWORD PTR _p$[ebp]
	push	edx
	call	?xmult@@YANAAVbtVector3@@00@Z		; xmult
	add	esp, 12					; 0000000cH
	fchs
	fstp	QWORD PTR tv81[ebp]
$LN4@dot_online:
	fld	QWORD PTR __real@3e45798ee2308c3a
	fcomp	QWORD PTR tv81[ebp]
	fnstsw	ax
	test	ah, 65					; 00000041H
	jne	$LN5@dot_online
	mov	ecx, DWORD PTR _l1$[ebp]
	call	?getX@btVector3@@QBEABMXZ		; btVector3::getX
	mov	esi, eax
	mov	ecx, DWORD PTR _p$[ebp]
	call	?getX@btVector3@@QBEABMXZ		; btVector3::getX
	fld	DWORD PTR [esi]
	fsub	DWORD PTR [eax]
	mov	ecx, DWORD PTR _l2$[ebp]
	fstp	DWORD PTR tv196[ebp]
	call	?getX@btVector3@@QBEABMXZ		; btVector3::getX
	mov	esi, eax
	mov	ecx, DWORD PTR _p$[ebp]
	call	?getX@btVector3@@QBEABMXZ		; btVector3::getX
	fld	DWORD PTR [esi]
	fsub	DWORD PTR [eax]
	fmul	DWORD PTR tv196[ebp]
	fcomp	QWORD PTR __real@3e45798ee2308c3a
	fnstsw	ax
	test	ah, 5
	jp	SHORT $LN5@dot_online
	mov	ecx, DWORD PTR _l1$[ebp]
	call	?getY@btVector3@@QBEABMXZ		; btVector3::getY
	mov	esi, eax
	mov	ecx, DWORD PTR _p$[ebp]
	call	?getY@btVector3@@QBEABMXZ		; btVector3::getY
	fld	DWORD PTR [esi]
	fsub	DWORD PTR [eax]
	mov	ecx, DWORD PTR _l2$[ebp]
	fstp	DWORD PTR tv198[ebp]
	call	?getY@btVector3@@QBEABMXZ		; btVector3::getY
	mov	esi, eax
	mov	ecx, DWORD PTR _p$[ebp]
	call	?getY@btVector3@@QBEABMXZ		; btVector3::getY
	fld	DWORD PTR [esi]
	fsub	DWORD PTR [eax]
	fmul	DWORD PTR tv198[ebp]
	fcomp	QWORD PTR __real@3e45798ee2308c3a
	fnstsw	ax
	test	ah, 5
	jp	SHORT $LN5@dot_online
	mov	DWORD PTR tv145[ebp], 1
	jmp	SHORT $LN6@dot_online
$LN5@dot_online:
	mov	DWORD PTR tv145[ebp], 0
$LN6@dot_online:
	mov	eax, DWORD PTR tv145[ebp]
; Line 133
	pop	esi
	add	esp, 20					; 00000014H
	cmp	ebp, esp
	call	__RTC_CheckEsp
	mov	esp, ebp
	pop	ebp
	ret	0
?dot_online_in@@YAHAAVbtVector3@@00@Z ENDP		; dot_online_in
_TEXT	ENDS
PUBLIC	?same_side@@YAHAAVbtVector3@@000@Z		; same_side
; Function compile flags: /Odtp /RTCsu
;	COMDAT ?same_side@@YAHAAVbtVector3@@000@Z
_TEXT	SEGMENT
tv74 = -12						; size = 4
tv89 = -8						; size = 8
_p1$ = 8						; size = 4
_p2$ = 12						; size = 4
_l1$ = 16						; size = 4
_l2$ = 20						; size = 4
?same_side@@YAHAAVbtVector3@@000@Z PROC			; same_side, COMDAT
; Line 137
	push	ebp
	mov	ebp, esp
	sub	esp, 12					; 0000000cH
	mov	DWORD PTR [ebp-12], -858993460		; ccccccccH
	mov	DWORD PTR [ebp-8], -858993460		; ccccccccH
	mov	DWORD PTR [ebp-4], -858993460		; ccccccccH
; Line 138
	mov	eax, DWORD PTR _l2$[ebp]
	push	eax
	mov	ecx, DWORD PTR _p1$[ebp]
	push	ecx
	mov	edx, DWORD PTR _l1$[ebp]
	push	edx
	call	?xmult@@YANAAVbtVector3@@00@Z		; xmult
	add	esp, 12					; 0000000cH
	mov	eax, DWORD PTR _l2$[ebp]
	push	eax
	mov	ecx, DWORD PTR _p2$[ebp]
	push	ecx
	mov	edx, DWORD PTR _l1$[ebp]
	push	edx
	fstp	QWORD PTR tv89[ebp]
	call	?xmult@@YANAAVbtVector3@@00@Z		; xmult
	add	esp, 12					; 0000000cH
	fmul	QWORD PTR tv89[ebp]
	fcomp	QWORD PTR __real@3e45798ee2308c3a
	fnstsw	ax
	test	ah, 65					; 00000041H
	jne	SHORT $LN3@same_side
	mov	DWORD PTR tv74[ebp], 1
	jmp	SHORT $LN4@same_side
$LN3@same_side:
	mov	DWORD PTR tv74[ebp], 0
$LN4@same_side:
	mov	eax, DWORD PTR tv74[ebp]
; Line 139
	add	esp, 12					; 0000000cH
	cmp	ebp, esp
	call	__RTC_CheckEsp
	mov	esp, ebp
	pop	ebp
	ret	0
?same_side@@YAHAAVbtVector3@@000@Z ENDP			; same_side
_TEXT	ENDS
PUBLIC	?parallel@@YAHAAVbtVector3@@000@Z		; parallel
; Function compile flags: /Odtp /RTCsu
;	COMDAT ?parallel@@YAHAAVbtVector3@@000@Z
_TEXT	SEGMENT
tv185 = -44						; size = 4
tv260 = -40						; size = 4
tv258 = -36						; size = 4
tv256 = -32						; size = 4
tv182 = -28						; size = 4
tv254 = -24						; size = 4
tv252 = -20						; size = 4
tv250 = -16						; size = 4
tv248 = -12						; size = 4
tv246 = -8						; size = 4
tv244 = -4						; size = 4
_u1$ = 8						; size = 4
_u2$ = 12						; size = 4
_v1$ = 16						; size = 4
_v2$ = 20						; size = 4
?parallel@@YAHAAVbtVector3@@000@Z PROC			; parallel, COMDAT
; Line 143
	push	ebp
	mov	ebp, esp
	sub	esp, 44					; 0000002cH
	push	esi
	push	edi
	lea	edi, DWORD PTR [ebp-44]
	mov	ecx, 11					; 0000000bH
	mov	eax, -858993460				; ccccccccH
	rep stosd
; Line 144
	mov	ecx, DWORD PTR _u1$[ebp]
	call	?getX@btVector3@@QBEABMXZ		; btVector3::getX
	mov	esi, eax
	mov	ecx, DWORD PTR _u2$[ebp]
	call	?getX@btVector3@@QBEABMXZ		; btVector3::getX
	fld	DWORD PTR [esi]
	fsub	DWORD PTR [eax]
	mov	ecx, DWORD PTR _v1$[ebp]
	fstp	DWORD PTR tv244[ebp]
	call	?getY@btVector3@@QBEABMXZ		; btVector3::getY
	mov	esi, eax
	mov	ecx, DWORD PTR _v2$[ebp]
	call	?getY@btVector3@@QBEABMXZ		; btVector3::getY
	fld	DWORD PTR [esi]
	fsub	DWORD PTR [eax]
	fmul	DWORD PTR tv244[ebp]
	mov	ecx, DWORD PTR _v1$[ebp]
	fstp	DWORD PTR tv246[ebp]
	call	?getX@btVector3@@QBEABMXZ		; btVector3::getX
	mov	esi, eax
	mov	ecx, DWORD PTR _v2$[ebp]
	call	?getX@btVector3@@QBEABMXZ		; btVector3::getX
	fld	DWORD PTR [esi]
	fsub	DWORD PTR [eax]
	mov	ecx, DWORD PTR _u1$[ebp]
	fstp	DWORD PTR tv248[ebp]
	call	?getY@btVector3@@QBEABMXZ		; btVector3::getY
	mov	esi, eax
	mov	ecx, DWORD PTR _u2$[ebp]
	call	?getY@btVector3@@QBEABMXZ		; btVector3::getY
	fld	DWORD PTR [esi]
	fsub	DWORD PTR [eax]
	fmul	DWORD PTR tv248[ebp]
	fsubr	DWORD PTR tv246[ebp]
	fcomp	DWORD PTR __real@00000000
	fnstsw	ax
	test	ah, 65					; 00000041H
	jne	SHORT $LN3@parallel
	mov	ecx, DWORD PTR _u1$[ebp]
	call	?getX@btVector3@@QBEABMXZ		; btVector3::getX
	mov	esi, eax
	mov	ecx, DWORD PTR _u2$[ebp]
	call	?getX@btVector3@@QBEABMXZ		; btVector3::getX
	fld	DWORD PTR [esi]
	fsub	DWORD PTR [eax]
	mov	ecx, DWORD PTR _v1$[ebp]
	fstp	DWORD PTR tv250[ebp]
	call	?getY@btVector3@@QBEABMXZ		; btVector3::getY
	mov	esi, eax
	mov	ecx, DWORD PTR _v2$[ebp]
	call	?getY@btVector3@@QBEABMXZ		; btVector3::getY
	fld	DWORD PTR [esi]
	fsub	DWORD PTR [eax]
	fmul	DWORD PTR tv250[ebp]
	mov	ecx, DWORD PTR _v1$[ebp]
	fstp	DWORD PTR tv252[ebp]
	call	?getX@btVector3@@QBEABMXZ		; btVector3::getX
	mov	esi, eax
	mov	ecx, DWORD PTR _v2$[ebp]
	call	?getX@btVector3@@QBEABMXZ		; btVector3::getX
	fld	DWORD PTR [esi]
	fsub	DWORD PTR [eax]
	mov	ecx, DWORD PTR _u1$[ebp]
	fstp	DWORD PTR tv254[ebp]
	call	?getY@btVector3@@QBEABMXZ		; btVector3::getY
	mov	esi, eax
	mov	ecx, DWORD PTR _u2$[ebp]
	call	?getY@btVector3@@QBEABMXZ		; btVector3::getY
	fld	DWORD PTR [esi]
	fsub	DWORD PTR [eax]
	fmul	DWORD PTR tv254[ebp]
	fsubr	DWORD PTR tv252[ebp]
	fstp	DWORD PTR tv182[ebp]
	jmp	SHORT $LN4@parallel
$LN3@parallel:
	mov	ecx, DWORD PTR _u1$[ebp]
	call	?getX@btVector3@@QBEABMXZ		; btVector3::getX
	mov	esi, eax
	mov	ecx, DWORD PTR _u2$[ebp]
	call	?getX@btVector3@@QBEABMXZ		; btVector3::getX
	fld	DWORD PTR [esi]
	fsub	DWORD PTR [eax]
	mov	ecx, DWORD PTR _v1$[ebp]
	fstp	DWORD PTR tv256[ebp]
	call	?getY@btVector3@@QBEABMXZ		; btVector3::getY
	mov	esi, eax
	mov	ecx, DWORD PTR _v2$[ebp]
	call	?getY@btVector3@@QBEABMXZ		; btVector3::getY
	fld	DWORD PTR [esi]
	fsub	DWORD PTR [eax]
	fmul	DWORD PTR tv256[ebp]
	mov	ecx, DWORD PTR _v1$[ebp]
	fstp	DWORD PTR tv258[ebp]
	call	?getX@btVector3@@QBEABMXZ		; btVector3::getX
	mov	esi, eax
	mov	ecx, DWORD PTR _v2$[ebp]
	call	?getX@btVector3@@QBEABMXZ		; btVector3::getX
	fld	DWORD PTR [esi]
	fsub	DWORD PTR [eax]
	mov	ecx, DWORD PTR _u1$[ebp]
	fstp	DWORD PTR tv260[ebp]
	call	?getY@btVector3@@QBEABMXZ		; btVector3::getY
	mov	esi, eax
	mov	ecx, DWORD PTR _u2$[ebp]
	call	?getY@btVector3@@QBEABMXZ		; btVector3::getY
	fld	DWORD PTR [esi]
	fsub	DWORD PTR [eax]
	fmul	DWORD PTR tv260[ebp]
	fsubr	DWORD PTR tv258[ebp]
	fchs
	fstp	DWORD PTR tv182[ebp]
$LN4@parallel:
	fld	DWORD PTR tv182[ebp]
	fcomp	QWORD PTR __real@3e45798ee2308c3a
	fnstsw	ax
	test	ah, 5
	jp	SHORT $LN5@parallel
	mov	DWORD PTR tv185[ebp], 1
	jmp	SHORT $LN6@parallel
$LN5@parallel:
	mov	DWORD PTR tv185[ebp], 0
$LN6@parallel:
	mov	eax, DWORD PTR tv185[ebp]
; Line 145
	pop	edi
	pop	esi
	add	esp, 44					; 0000002cH
	cmp	ebp, esp
	call	__RTC_CheckEsp
	mov	esp, ebp
	pop	ebp
	ret	0
?parallel@@YAHAAVbtVector3@@000@Z ENDP			; parallel
_TEXT	ENDS
PUBLIC	?dots_inline@@YAHAAVbtVector3@@00@Z		; dots_inline
; Function compile flags: /Odtp /RTCsu
;	COMDAT ?dots_inline@@YAHAAVbtVector3@@00@Z
_TEXT	SEGMENT
tv83 = -12						; size = 4
tv81 = -8						; size = 8
_p1$ = 8						; size = 4
_p2$ = 12						; size = 4
_p3$ = 16						; size = 4
?dots_inline@@YAHAAVbtVector3@@00@Z PROC		; dots_inline, COMDAT
; Line 149
	push	ebp
	mov	ebp, esp
	sub	esp, 12					; 0000000cH
	mov	DWORD PTR [ebp-12], -858993460		; ccccccccH
	mov	DWORD PTR [ebp-8], -858993460		; ccccccccH
	mov	DWORD PTR [ebp-4], -858993460		; ccccccccH
; Line 150
	mov	eax, DWORD PTR _p3$[ebp]
	push	eax
	mov	ecx, DWORD PTR _p2$[ebp]
	push	ecx
	mov	edx, DWORD PTR _p1$[ebp]
	push	edx
	call	?xmult@@YANAAVbtVector3@@00@Z		; xmult
	add	esp, 12					; 0000000cH
	fcomp	QWORD PTR __real@0000000000000000
	fnstsw	ax
	test	ah, 65					; 00000041H
	jne	SHORT $LN3@dots_inlin
	mov	eax, DWORD PTR _p3$[ebp]
	push	eax
	mov	ecx, DWORD PTR _p2$[ebp]
	push	ecx
	mov	edx, DWORD PTR _p1$[ebp]
	push	edx
	call	?xmult@@YANAAVbtVector3@@00@Z		; xmult
	add	esp, 12					; 0000000cH
	fstp	QWORD PTR tv81[ebp]
	jmp	SHORT $LN4@dots_inlin
$LN3@dots_inlin:
	mov	eax, DWORD PTR _p3$[ebp]
	push	eax
	mov	ecx, DWORD PTR _p2$[ebp]
	push	ecx
	mov	edx, DWORD PTR _p1$[ebp]
	push	edx
	call	?xmult@@YANAAVbtVector3@@00@Z		; xmult
	add	esp, 12					; 0000000cH
	fchs
	fstp	QWORD PTR tv81[ebp]
$LN4@dots_inlin:
	fld	QWORD PTR __real@3e45798ee2308c3a
	fcomp	QWORD PTR tv81[ebp]
	fnstsw	ax
	test	ah, 65					; 00000041H
	jne	SHORT $LN5@dots_inlin
	mov	DWORD PTR tv83[ebp], 1
	jmp	SHORT $LN6@dots_inlin
$LN5@dots_inlin:
	mov	DWORD PTR tv83[ebp], 0
$LN6@dots_inlin:
	mov	eax, DWORD PTR tv83[ebp]
; Line 151
	add	esp, 12					; 0000000cH
	cmp	ebp, esp
	call	__RTC_CheckEsp
	mov	esp, ebp
	pop	ebp
	ret	0
?dots_inline@@YAHAAVbtVector3@@00@Z ENDP		; dots_inline
_TEXT	ENDS
PUBLIC	?intersect_in@@YAHAAVbtVector3@@000@Z		; intersect_in
; Function compile flags: /Odtp /RTCsu
;	COMDAT ?intersect_in@@YAHAAVbtVector3@@000@Z
_TEXT	SEGMENT
tv139 = -8						; size = 4
tv86 = -4						; size = 4
_u1$ = 8						; size = 4
_u2$ = 12						; size = 4
_v1$ = 16						; size = 4
_v2$ = 20						; size = 4
?intersect_in@@YAHAAVbtVector3@@000@Z PROC		; intersect_in, COMDAT
; Line 155
	push	ebp
	mov	ebp, esp
	sub	esp, 8
	mov	DWORD PTR [ebp-8], -858993460		; ccccccccH
	mov	DWORD PTR [ebp-4], -858993460		; ccccccccH
; Line 158
	mov	eax, DWORD PTR _v1$[ebp]
	push	eax
	mov	ecx, DWORD PTR _u2$[ebp]
	push	ecx
	mov	edx, DWORD PTR _u1$[ebp]
	push	edx
	call	?dots_inline@@YAHAAVbtVector3@@00@Z	; dots_inline
	add	esp, 12					; 0000000cH
	test	eax, eax
	je	SHORT $LN1@intersect_
	mov	eax, DWORD PTR _v2$[ebp]
	push	eax
	mov	ecx, DWORD PTR _u2$[ebp]
	push	ecx
	mov	edx, DWORD PTR _u1$[ebp]
	push	edx
	call	?dots_inline@@YAHAAVbtVector3@@00@Z	; dots_inline
	add	esp, 12					; 0000000cH
	test	eax, eax
	jne	SHORT $LN2@intersect_
$LN1@intersect_:
; Line 159
	mov	eax, DWORD PTR _v2$[ebp]
	push	eax
	mov	ecx, DWORD PTR _v1$[ebp]
	push	ecx
	mov	edx, DWORD PTR _u2$[ebp]
	push	edx
	mov	eax, DWORD PTR _u1$[ebp]
	push	eax
	call	?same_side@@YAHAAVbtVector3@@000@Z	; same_side
	add	esp, 16					; 00000010H
	test	eax, eax
	jne	SHORT $LN5@intersect_
	mov	ecx, DWORD PTR _u2$[ebp]
	push	ecx
	mov	edx, DWORD PTR _u1$[ebp]
	push	edx
	mov	eax, DWORD PTR _v2$[ebp]
	push	eax
	mov	ecx, DWORD PTR _v1$[ebp]
	push	ecx
	call	?same_side@@YAHAAVbtVector3@@000@Z	; same_side
	add	esp, 16					; 00000010H
	test	eax, eax
	jne	SHORT $LN5@intersect_
	mov	DWORD PTR tv86[ebp], 1
	jmp	SHORT $LN6@intersect_
$LN5@intersect_:
	mov	DWORD PTR tv86[ebp], 0
$LN6@intersect_:
	mov	eax, DWORD PTR tv86[ebp]
	jmp	SHORT $LN3@intersect_
$LN2@intersect_:
; Line 160
	mov	edx, DWORD PTR _v2$[ebp]
	push	edx
	mov	eax, DWORD PTR _v1$[ebp]
	push	eax
	mov	ecx, DWORD PTR _u1$[ebp]
	push	ecx
	call	?dot_online_in@@YAHAAVbtVector3@@00@Z	; dot_online_in
	add	esp, 12					; 0000000cH
	test	eax, eax
	jne	SHORT $LN7@intersect_
	mov	edx, DWORD PTR _v2$[ebp]
	push	edx
	mov	eax, DWORD PTR _v1$[ebp]
	push	eax
	mov	ecx, DWORD PTR _u2$[ebp]
	push	ecx
	call	?dot_online_in@@YAHAAVbtVector3@@00@Z	; dot_online_in
	add	esp, 12					; 0000000cH
	test	eax, eax
	jne	SHORT $LN7@intersect_
	mov	edx, DWORD PTR _u2$[ebp]
	push	edx
	mov	eax, DWORD PTR _u1$[ebp]
	push	eax
	mov	ecx, DWORD PTR _v1$[ebp]
	push	ecx
	call	?dot_online_in@@YAHAAVbtVector3@@00@Z	; dot_online_in
	add	esp, 12					; 0000000cH
	test	eax, eax
	jne	SHORT $LN7@intersect_
	mov	edx, DWORD PTR _u2$[ebp]
	push	edx
	mov	eax, DWORD PTR _u1$[ebp]
	push	eax
	mov	ecx, DWORD PTR _v2$[ebp]
	push	ecx
	call	?dot_online_in@@YAHAAVbtVector3@@00@Z	; dot_online_in
	add	esp, 12					; 0000000cH
	test	eax, eax
	jne	SHORT $LN7@intersect_
	mov	DWORD PTR tv139[ebp], 0
	jmp	SHORT $LN8@intersect_
$LN7@intersect_:
	mov	DWORD PTR tv139[ebp], 1
$LN8@intersect_:
	mov	eax, DWORD PTR tv139[ebp]
$LN3@intersect_:
; Line 161
	add	esp, 8
	cmp	ebp, esp
	call	__RTC_CheckEsp
	mov	esp, ebp
	pop	ebp
	ret	0
?intersect_in@@YAHAAVbtVector3@@000@Z ENDP		; intersect_in
_TEXT	ENDS
PUBLIC	?setY@btVector3@@QAEXM@Z			; btVector3::setY
PUBLIC	?setX@btVector3@@QAEXM@Z			; btVector3::setX
PUBLIC	??0btVector3@@QAE@XZ				; btVector3::btVector3
PUBLIC	?intersection@@YA?AVbtVector3@@AAV1@000@Z	; intersection
; Function compile flags: /Odtp /RTCsu
;	COMDAT ?intersection@@YA?AVbtVector3@@AAV1@000@Z
_TEXT	SEGMENT
tv263 = -68						; size = 4
tv261 = -64						; size = 4
tv259 = -60						; size = 4
tv257 = -56						; size = 4
tv255 = -52						; size = 4
tv253 = -48						; size = 4
tv251 = -44						; size = 4
_t$ = -40						; size = 4
_ret$ = -32						; size = 16
___$ReturnUdt$ = 8					; size = 4
_u1$ = 12						; size = 4
_u2$ = 16						; size = 4
_v1$ = 20						; size = 4
_v2$ = 24						; size = 4
?intersection@@YA?AVbtVector3@@AAV1@000@Z PROC		; intersection, COMDAT
; Line 165
	push	ebx
	mov	ebx, esp
	sub	esp, 8
	and	esp, -16				; fffffff0H
	add	esp, 4
	push	ebp
	mov	ebp, DWORD PTR [ebx+4]
	mov	DWORD PTR [esp+4], ebp
	mov	ebp, esp
	sub	esp, 72					; 00000048H
	push	esi
	push	edi
	lea	edi, DWORD PTR [ebp-72]
	mov	ecx, 18					; 00000012H
	mov	eax, -858993460				; ccccccccH
	rep stosd
; Line 166
	lea	ecx, DWORD PTR _ret$[ebp]
	call	??0btVector3@@QAE@XZ			; btVector3::btVector3
; Line 167
	mov	eax, DWORD PTR _u1$[ebx]
	mov	ecx, DWORD PTR [eax]
	mov	DWORD PTR _ret$[ebp], ecx
	mov	edx, DWORD PTR [eax+4]
	mov	DWORD PTR _ret$[ebp+4], edx
	mov	ecx, DWORD PTR [eax+8]
	mov	DWORD PTR _ret$[ebp+8], ecx
	mov	edx, DWORD PTR [eax+12]
	mov	DWORD PTR _ret$[ebp+12], edx
; Line 170
	mov	ecx, DWORD PTR _u1$[ebx]
	call	?getX@btVector3@@QBEABMXZ		; btVector3::getX
	mov	esi, eax
	mov	ecx, DWORD PTR _v1$[ebx]
	call	?getX@btVector3@@QBEABMXZ		; btVector3::getX
	fld	DWORD PTR [esi]
	fsub	DWORD PTR [eax]
	mov	ecx, DWORD PTR _v1$[ebx]
	fstp	DWORD PTR tv251[ebp]
	call	?getY@btVector3@@QBEABMXZ		; btVector3::getY
	mov	esi, eax
	mov	ecx, DWORD PTR _v2$[ebx]
	call	?getY@btVector3@@QBEABMXZ		; btVector3::getY
	fld	DWORD PTR [esi]
	fsub	DWORD PTR [eax]
	fmul	DWORD PTR tv251[ebp]
	mov	ecx, DWORD PTR _u1$[ebx]
	fstp	DWORD PTR tv253[ebp]
	call	?getY@btVector3@@QBEABMXZ		; btVector3::getY
	mov	esi, eax
	mov	ecx, DWORD PTR _v1$[ebx]
	call	?getY@btVector3@@QBEABMXZ		; btVector3::getY
	fld	DWORD PTR [esi]
	fsub	DWORD PTR [eax]
	mov	ecx, DWORD PTR _v1$[ebx]
	fstp	DWORD PTR tv255[ebp]
	call	?getX@btVector3@@QBEABMXZ		; btVector3::getX
	mov	esi, eax
	mov	ecx, DWORD PTR _v2$[ebx]
	call	?getX@btVector3@@QBEABMXZ		; btVector3::getX
	fld	DWORD PTR [esi]
	fsub	DWORD PTR [eax]
	fmul	DWORD PTR tv255[ebp]
	fsubr	DWORD PTR tv253[ebp]
	mov	ecx, DWORD PTR _u1$[ebx]
	fstp	DWORD PTR tv257[ebp]
	call	?getX@btVector3@@QBEABMXZ		; btVector3::getX
	mov	esi, eax
	mov	ecx, DWORD PTR _u2$[ebx]
	call	?getX@btVector3@@QBEABMXZ		; btVector3::getX
	fld	DWORD PTR [esi]
	fsub	DWORD PTR [eax]
	mov	ecx, DWORD PTR _v1$[ebx]
	fstp	DWORD PTR tv259[ebp]
	call	?getY@btVector3@@QBEABMXZ		; btVector3::getY
	mov	esi, eax
	mov	ecx, DWORD PTR _v2$[ebx]
	call	?getY@btVector3@@QBEABMXZ		; btVector3::getY
	fld	DWORD PTR [esi]
	fsub	DWORD PTR [eax]
	fmul	DWORD PTR tv259[ebp]
	mov	ecx, DWORD PTR _u1$[ebx]
	fstp	DWORD PTR tv261[ebp]
	call	?getY@btVector3@@QBEABMXZ		; btVector3::getY
	mov	esi, eax
	mov	ecx, DWORD PTR _u2$[ebx]
	call	?getY@btVector3@@QBEABMXZ		; btVector3::getY
	fld	DWORD PTR [esi]
	fsub	DWORD PTR [eax]
	mov	ecx, DWORD PTR _v1$[ebx]
	fstp	DWORD PTR tv263[ebp]
	call	?getX@btVector3@@QBEABMXZ		; btVector3::getX
	mov	esi, eax
	mov	ecx, DWORD PTR _v2$[ebx]
	call	?getX@btVector3@@QBEABMXZ		; btVector3::getX
	fld	DWORD PTR [esi]
	fsub	DWORD PTR [eax]
	fmul	DWORD PTR tv263[ebp]
	fsubr	DWORD PTR tv261[ebp]
	fdivr	DWORD PTR tv257[ebp]
	fstp	DWORD PTR _t$[ebp]
; Line 172
	lea	ecx, DWORD PTR _ret$[ebp]
	call	?getX@btVector3@@QBEABMXZ		; btVector3::getX
	mov	esi, eax
	mov	ecx, DWORD PTR _u2$[ebx]
	call	?getX@btVector3@@QBEABMXZ		; btVector3::getX
	mov	edi, eax
	mov	ecx, DWORD PTR _u1$[ebx]
	call	?getX@btVector3@@QBEABMXZ		; btVector3::getX
	fld	DWORD PTR [edi]
	fsub	DWORD PTR [eax]
	fmul	DWORD PTR _t$[ebp]
	fadd	DWORD PTR [esi]
	push	ecx
	fstp	DWORD PTR [esp]
	lea	ecx, DWORD PTR _ret$[ebp]
	call	?setX@btVector3@@QAEXM@Z		; btVector3::setX
; Line 173
	lea	ecx, DWORD PTR _ret$[ebp]
	call	?getY@btVector3@@QBEABMXZ		; btVector3::getY
	mov	esi, eax
	mov	ecx, DWORD PTR _u2$[ebx]
	call	?getY@btVector3@@QBEABMXZ		; btVector3::getY
	mov	edi, eax
	mov	ecx, DWORD PTR _u1$[ebx]
	call	?getY@btVector3@@QBEABMXZ		; btVector3::getY
	fld	DWORD PTR [edi]
	fsub	DWORD PTR [eax]
	fmul	DWORD PTR _t$[ebp]
	fadd	DWORD PTR [esi]
	push	ecx
	fstp	DWORD PTR [esp]
	lea	ecx, DWORD PTR _ret$[ebp]
	call	?setY@btVector3@@QAEXM@Z		; btVector3::setY
; Line 174
	mov	eax, DWORD PTR ___$ReturnUdt$[ebx]
	mov	ecx, DWORD PTR _ret$[ebp]
	mov	DWORD PTR [eax], ecx
	mov	edx, DWORD PTR _ret$[ebp+4]
	mov	DWORD PTR [eax+4], edx
	mov	ecx, DWORD PTR _ret$[ebp+8]
	mov	DWORD PTR [eax+8], ecx
	mov	edx, DWORD PTR _ret$[ebp+12]
	mov	DWORD PTR [eax+12], edx
	mov	eax, DWORD PTR ___$ReturnUdt$[ebx]
; Line 175
	push	edx
	mov	ecx, ebp
	push	eax
	lea	edx, DWORD PTR $LN5@intersecti
	call	@_RTC_CheckStackVars@8
	pop	eax
	pop	edx
	pop	edi
	pop	esi
	mov	esp, ebp
	pop	ebp
	mov	esp, ebx
	pop	ebx
	ret	0
	npad	2
$LN5@intersecti:
	DD	1
	DD	$LN4@intersecti
$LN4@intersecti:
	DD	-32					; ffffffe0H
	DD	16					; 00000010H
	DD	$LN3@intersecti
$LN3@intersecti:
	DB	114					; 00000072H
	DB	101					; 00000065H
	DB	116					; 00000074H
	DB	0
?intersection@@YA?AVbtVector3@@AAV1@000@Z ENDP		; intersection
; Function compile flags: /Odtp /RTCsu
_TEXT	ENDS
;	COMDAT ??0btVector3@@QAE@XZ
_TEXT	SEGMENT
_this$ = -4						; size = 4
??0btVector3@@QAE@XZ PROC				; btVector3::btVector3, COMDAT
; _this$ = ecx
; File d:\專題\自建專案\自建專案\src\linearmath\btvector3.h
; Line 119
	push	ebp
	mov	ebp, esp
	push	ecx
	mov	DWORD PTR [ebp-4], -858993460		; ccccccccH
	mov	DWORD PTR _this$[ebp], ecx
; Line 122
	mov	eax, DWORD PTR _this$[ebp]
	mov	esp, ebp
	pop	ebp
	ret	0
??0btVector3@@QAE@XZ ENDP				; btVector3::btVector3
; Function compile flags: /Odtp /RTCsu
_TEXT	ENDS
;	COMDAT ?setX@btVector3@@QAEXM@Z
_TEXT	SEGMENT
_this$ = -4						; size = 4
__x$ = 8						; size = 4
?setX@btVector3@@QAEXM@Z PROC				; btVector3::setX, COMDAT
; _this$ = ecx
; Line 567
	push	ebp
	mov	ebp, esp
	push	ecx
	mov	DWORD PTR [ebp-4], -858993460		; ccccccccH
	mov	DWORD PTR _this$[ebp], ecx
	mov	eax, DWORD PTR _this$[ebp]
	fld	DWORD PTR __x$[ebp]
	fstp	DWORD PTR [eax]
	mov	esp, ebp
	pop	ebp
	ret	4
?setX@btVector3@@QAEXM@Z ENDP				; btVector3::setX
; Function compile flags: /Odtp /RTCsu
_TEXT	ENDS
;	COMDAT ?setY@btVector3@@QAEXM@Z
_TEXT	SEGMENT
_this$ = -4						; size = 4
__y$ = 8						; size = 4
?setY@btVector3@@QAEXM@Z PROC				; btVector3::setY, COMDAT
; _this$ = ecx
; Line 569
	push	ebp
	mov	ebp, esp
	push	ecx
	mov	DWORD PTR [ebp-4], -858993460		; ccccccccH
	mov	DWORD PTR _this$[ebp], ecx
	mov	eax, DWORD PTR _this$[ebp]
	fld	DWORD PTR __y$[ebp]
	fstp	DWORD PTR [eax+4]
	mov	esp, ebp
	pop	ebp
	ret	4
?setY@btVector3@@QAEXM@Z ENDP				; btVector3::setY
_TEXT	ENDS
PUBLIC	?updateBounds@btSoftBody@@QAEXXZ		; btSoftBody::updateBounds
PUBLIC	?FromCR@btDbvtAabbMm@@SA?AU1@ABVbtVector3@@M@Z	; btDbvtAabbMm::FromCR
PUBLIC	??A?$btAlignedObjectArray@UNode@btSoftBody@@@@QAEAAUNode@btSoftBody@@H@Z ; btAlignedObjectArray<btSoftBody::Node>::operator[]
PUBLIC	?resize@?$btAlignedObjectArray@UNode@btSoftBody@@@@QAEXHABUNode@btSoftBody@@@Z ; btAlignedObjectArray<btSoftBody::Node>::resize
PUBLIC	??0Node@btSoftBody@@QAE@XZ			; btSoftBody::Node::Node
PUBLIC	?getCollisionShape@btCollisionObject@@QAEPAVbtCollisionShape@@XZ ; btCollisionObject::getCollisionShape
PUBLIC	?appendMaterial@btSoftBody@@QAEPAUMaterial@1@XZ	; btSoftBody::appendMaterial
PUBLIC	?initDefaults@btSoftBody@@QAEXXZ		; btSoftBody::initDefaults
PUBLIC	??0?$btAlignedObjectArray@H@@QAE@XZ		; btAlignedObjectArray<int>::btAlignedObjectArray<int>
PUBLIC	??0btTransform@@QAE@XZ				; btTransform::btTransform
PUBLIC	??0?$btAlignedObjectArray@_N@@QAE@XZ		; btAlignedObjectArray<bool>::btAlignedObjectArray<bool>
PUBLIC	??0?$btAlignedObjectArray@PAUCluster@btSoftBody@@@@QAE@XZ ; btAlignedObjectArray<btSoftBody::Cluster *>::btAlignedObjectArray<btSoftBody::Cluster *>
PUBLIC	??0?$btAlignedObjectArray@PAUMaterial@btSoftBody@@@@QAE@XZ ; btAlignedObjectArray<btSoftBody::Material *>::btAlignedObjectArray<btSoftBody::Material *>
PUBLIC	??0?$btAlignedObjectArray@PAUJoint@btSoftBody@@@@QAE@XZ ; btAlignedObjectArray<btSoftBody::Joint *>::btAlignedObjectArray<btSoftBody::Joint *>
PUBLIC	??0?$btAlignedObjectArray@USContact@btSoftBody@@@@QAE@XZ ; btAlignedObjectArray<btSoftBody::SContact>::btAlignedObjectArray<btSoftBody::SContact>
PUBLIC	??0?$btAlignedObjectArray@URContact@btSoftBody@@@@QAE@XZ ; btAlignedObjectArray<btSoftBody::RContact>::btAlignedObjectArray<btSoftBody::RContact>
PUBLIC	??0?$btAlignedObjectArray@UAnchor@btSoftBody@@@@QAE@XZ ; btAlignedObjectArray<btSoftBody::Anchor>::btAlignedObjectArray<btSoftBody::Anchor>
PUBLIC	??0?$btAlignedObjectArray@UTetra@btSoftBody@@@@QAE@XZ ; btAlignedObjectArray<btSoftBody::Tetra>::btAlignedObjectArray<btSoftBody::Tetra>
PUBLIC	??0?$btAlignedObjectArray@UFace@btSoftBody@@@@QAE@XZ ; btAlignedObjectArray<btSoftBody::Face>::btAlignedObjectArray<btSoftBody::Face>
PUBLIC	??0?$btAlignedObjectArray@ULink@btSoftBody@@@@QAE@XZ ; btAlignedObjectArray<btSoftBody::Link>::btAlignedObjectArray<btSoftBody::Link>
PUBLIC	??0?$btAlignedObjectArray@UNode@btSoftBody@@@@QAE@XZ ; btAlignedObjectArray<btSoftBody::Node>::btAlignedObjectArray<btSoftBody::Node>
PUBLIC	??0?$btAlignedObjectArray@UNote@btSoftBody@@@@QAE@XZ ; btAlignedObjectArray<btSoftBody::Note>::btAlignedObjectArray<btSoftBody::Note>
PUBLIC	??0Pose@btSoftBody@@QAE@XZ			; btSoftBody::Pose::Pose
PUBLIC	??0Config@btSoftBody@@QAE@XZ			; btSoftBody::Config::Config
PUBLIC	??0?$btAlignedObjectArray@PBVbtCollisionObject@@@@QAE@XZ ; btAlignedObjectArray<btCollisionObject const *>::btAlignedObjectArray<btCollisionObject const *>
PUBLIC	??_7btSoftBody@@6B@				; btSoftBody::`vftable'
PUBLIC	??0btSoftBody@@QAE@PAUbtSoftBodyWorldInfo@@HPBVbtVector3@@PBM@Z ; btSoftBody::btSoftBody
PUBLIC	?checkCollideWithOverride@btCollisionObject@@MBE_NPBV1@@Z ; btCollisionObject::checkCollideWithOverride
PUBLIC	?setCollisionShape@btSoftBody@@UAEXPAVbtCollisionShape@@@Z ; btSoftBody::setCollisionShape
PUBLIC	?calculateSerializeBufferSize@btSoftBody@@UBEHXZ ; btSoftBody::calculateSerializeBufferSize
PUBLIC	?serialize@btSoftBody@@UBEPBDPAXPAVbtSerializer@@@Z ; btSoftBody::serialize
PUBLIC	?getAabb@btSoftBody@@UBEXAAVbtVector3@@0@Z	; btSoftBody::getAabb
EXTRN	?insert@btDbvt@@QAEPAUbtDbvtNode@@ABUbtDbvtAabbMm@@PAX@Z:PROC ; btDbvt::insert
EXTRN	??0btDbvt@@QAE@XZ:PROC				; btDbvt::btDbvt
EXTRN	??0btCollisionObject@@QAE@XZ:PROC		; btCollisionObject::btCollisionObject
EXTRN	??_EbtSoftBody@@UAEPAXI@Z:PROC			; btSoftBody::`vector deleting destructor'
EXTRN	?serializeSingleObject@btCollisionObject@@UBEXPAVbtSerializer@@@Z:PROC ; btCollisionObject::serializeSingleObject
;	COMDAT ??_7btSoftBody@@6B@
; File d:\專題\自建專案\自建專案\src\bulletsoftbody\btsoftbody.cpp
CONST	SEGMENT
??_7btSoftBody@@6B@ DD FLAT:?checkCollideWithOverride@btCollisionObject@@MBE_NPBV1@@Z ; btSoftBody::`vftable'
	DD	FLAT:??_EbtSoftBody@@UAEPAXI@Z
	DD	FLAT:?setCollisionShape@btSoftBody@@UAEXPAVbtCollisionShape@@@Z
	DD	FLAT:?calculateSerializeBufferSize@btSoftBody@@UBEHXZ
	DD	FLAT:?serialize@btSoftBody@@UBEPBDPAXPAVbtSerializer@@@Z
	DD	FLAT:?serializeSingleObject@btCollisionObject@@UBEXPAVbtSerializer@@@Z
	DD	FLAT:?getAabb@btSoftBody@@UBEXAAVbtVector3@@0@Z
; Function compile flags: /Odtp /RTCsu
CONST	ENDS
;	COMDAT ??0btSoftBody@@QAE@PAUbtSoftBodyWorldInfo@@HPBVbtVector3@@PBM@Z
_TEXT	SEGMENT
tv271 = -368						; size = 4
tv265 = -364						; size = 4
tv257 = -360						; size = 4
tv232 = -356						; size = 4
$T65793 = -352						; size = 4
$T65792 = -348						; size = 4
$T65791 = -344						; size = 4
$T65790 = -340						; size = 4
$T65789 = -336						; size = 128
$T52515 = -208						; size = 32
$T52510 = -176						; size = 16
_n$52505 = -156						; size = 4
_ni$52501 = -152					; size = 4
_i$52500 = -148						; size = 4
_margin$ = -12						; size = 4
_pm$ = -8						; size = 4
_this$ = -4						; size = 4
_worldInfo$ = 8						; size = 4
_node_count$ = 12					; size = 4
_x$ = 16						; size = 4
_m$ = 20						; size = 4
??0btSoftBody@@QAE@PAUbtSoftBodyWorldInfo@@HPBVbtVector3@@PBM@Z PROC ; btSoftBody::btSoftBody, COMDAT
; _this$ = ecx
; Line 181
	push	ebx
	mov	ebx, esp
	sub	esp, 8
	and	esp, -16				; fffffff0H
	add	esp, 4
	push	ebp
	mov	ebp, DWORD PTR [ebx+4]
	mov	DWORD PTR [esp+4], ebp
	mov	ebp, esp
	sub	esp, 380				; 0000017cH
	push	esi
	push	edi
	push	ecx
	lea	edi, DWORD PTR [ebp-380]
	mov	ecx, 95					; 0000005fH
	mov	eax, -858993460				; ccccccccH
	rep stosd
	pop	ecx
	mov	DWORD PTR _this$[ebp], ecx
	mov	ecx, DWORD PTR _this$[ebp]
	call	??0btCollisionObject@@QAE@XZ		; btCollisionObject::btCollisionObject
	mov	eax, DWORD PTR _this$[ebp]
	mov	DWORD PTR [eax], OFFSET ??_7btSoftBody@@6B@
	mov	ecx, DWORD PTR _this$[ebp]
	add	ecx, 288				; 00000120H
	call	??0?$btAlignedObjectArray@PBVbtCollisionObject@@@@QAE@XZ ; btAlignedObjectArray<btCollisionObject const *>::btAlignedObjectArray<btCollisionObject const *>
	mov	ecx, DWORD PTR _this$[ebp]
	mov	DWORD PTR [ecx+308], 0
	mov	ecx, DWORD PTR _this$[ebp]
	add	ecx, 312				; 00000138H
	call	??0Config@btSoftBody@@QAE@XZ
	mov	ecx, DWORD PTR _this$[ebp]
	add	ecx, 496				; 000001f0H
	call	??0Pose@btSoftBody@@QAE@XZ
	mov	edx, DWORD PTR _this$[ebp]
	mov	eax, DWORD PTR _worldInfo$[ebx]
	mov	DWORD PTR [edx+708], eax
	mov	ecx, DWORD PTR _this$[ebp]
	add	ecx, 712				; 000002c8H
	call	??0?$btAlignedObjectArray@UNote@btSoftBody@@@@QAE@XZ ; btAlignedObjectArray<btSoftBody::Note>::btAlignedObjectArray<btSoftBody::Note>
	mov	ecx, DWORD PTR _this$[ebp]
	add	ecx, 732				; 000002dcH
	call	??0?$btAlignedObjectArray@UNode@btSoftBody@@@@QAE@XZ ; btAlignedObjectArray<btSoftBody::Node>::btAlignedObjectArray<btSoftBody::Node>
	mov	ecx, DWORD PTR _this$[ebp]
	add	ecx, 752				; 000002f0H
	call	??0?$btAlignedObjectArray@ULink@btSoftBody@@@@QAE@XZ ; btAlignedObjectArray<btSoftBody::Link>::btAlignedObjectArray<btSoftBody::Link>
	mov	ecx, DWORD PTR _this$[ebp]
	add	ecx, 772				; 00000304H
	call	??0?$btAlignedObjectArray@UFace@btSoftBody@@@@QAE@XZ ; btAlignedObjectArray<btSoftBody::Face>::btAlignedObjectArray<btSoftBody::Face>
	mov	ecx, DWORD PTR _this$[ebp]
	add	ecx, 792				; 00000318H
	call	??0?$btAlignedObjectArray@UTetra@btSoftBody@@@@QAE@XZ ; btAlignedObjectArray<btSoftBody::Tetra>::btAlignedObjectArray<btSoftBody::Tetra>
	mov	ecx, DWORD PTR _this$[ebp]
	add	ecx, 812				; 0000032cH
	call	??0?$btAlignedObjectArray@UAnchor@btSoftBody@@@@QAE@XZ ; btAlignedObjectArray<btSoftBody::Anchor>::btAlignedObjectArray<btSoftBody::Anchor>
	mov	ecx, DWORD PTR _this$[ebp]
	add	ecx, 832				; 00000340H
	call	??0?$btAlignedObjectArray@URContact@btSoftBody@@@@QAE@XZ ; btAlignedObjectArray<btSoftBody::RContact>::btAlignedObjectArray<btSoftBody::RContact>
	mov	ecx, DWORD PTR _this$[ebp]
	add	ecx, 852				; 00000354H
	call	??0?$btAlignedObjectArray@USContact@btSoftBody@@@@QAE@XZ ; btAlignedObjectArray<btSoftBody::SContact>::btAlignedObjectArray<btSoftBody::SContact>
	mov	ecx, DWORD PTR _this$[ebp]
	add	ecx, 872				; 00000368H
	call	??0?$btAlignedObjectArray@PAUJoint@btSoftBody@@@@QAE@XZ ; btAlignedObjectArray<btSoftBody::Joint *>::btAlignedObjectArray<btSoftBody::Joint *>
	mov	ecx, DWORD PTR _this$[ebp]
	add	ecx, 892				; 0000037cH
	call	??0?$btAlignedObjectArray@PAUMaterial@btSoftBody@@@@QAE@XZ ; btAlignedObjectArray<btSoftBody::Material *>::btAlignedObjectArray<btSoftBody::Material *>
	push	OFFSET ??0btVector3@@QAE@XZ		; btVector3::btVector3
	push	2
	push	16					; 00000010H
	mov	ecx, DWORD PTR _this$[ebp]
	add	ecx, 928				; 000003a0H
	push	ecx
	call	??_H@YGXPAXIHP6EPAX0@Z@Z
	mov	ecx, DWORD PTR _this$[ebp]
	add	ecx, 964				; 000003c4H
	call	??0btDbvt@@QAE@XZ			; btDbvt::btDbvt
	mov	ecx, DWORD PTR _this$[ebp]
	add	ecx, 1024				; 00000400H
	call	??0btDbvt@@QAE@XZ			; btDbvt::btDbvt
	mov	ecx, DWORD PTR _this$[ebp]
	add	ecx, 1084				; 0000043cH
	call	??0btDbvt@@QAE@XZ			; btDbvt::btDbvt
	mov	ecx, DWORD PTR _this$[ebp]
	add	ecx, 1144				; 00000478H
	call	??0?$btAlignedObjectArray@PAUCluster@btSoftBody@@@@QAE@XZ ; btAlignedObjectArray<btSoftBody::Cluster *>::btAlignedObjectArray<btSoftBody::Cluster *>
	mov	ecx, DWORD PTR _this$[ebp]
	add	ecx, 1164				; 0000048cH
	call	??0?$btAlignedObjectArray@_N@@QAE@XZ	; btAlignedObjectArray<bool>::btAlignedObjectArray<bool>
	mov	ecx, DWORD PTR _this$[ebp]
	add	ecx, 1184				; 000004a0H
	call	??0btTransform@@QAE@XZ			; btTransform::btTransform
	mov	ecx, DWORD PTR _this$[ebp]
	add	ecx, 1248				; 000004e0H
	call	??0btVector3@@QAE@XZ			; btVector3::btVector3
	mov	ecx, DWORD PTR _this$[ebp]
	add	ecx, 1268				; 000004f4H
	call	??0?$btAlignedObjectArray@H@@QAE@XZ	; btAlignedObjectArray<int>::btAlignedObjectArray<int>
; Line 183
	mov	ecx, DWORD PTR _this$[ebp]
	call	?initDefaults@btSoftBody@@QAEXXZ	; btSoftBody::initDefaults
; Line 186
	mov	ecx, DWORD PTR _this$[ebp]
	call	?appendMaterial@btSoftBody@@QAEPAUMaterial@1@XZ ; btSoftBody::appendMaterial
	mov	DWORD PTR _pm$[ebp], eax
; Line 187
	mov	edx, DWORD PTR _pm$[ebp]
	fld1
	fstp	DWORD PTR [edx+4]
; Line 188
	mov	eax, DWORD PTR _pm$[ebp]
	fld1
	fstp	DWORD PTR [eax+8]
; Line 189
	mov	ecx, DWORD PTR _pm$[ebp]
	fld1
	fstp	DWORD PTR [ecx+12]
; Line 190
	mov	edx, DWORD PTR _pm$[ebp]
	mov	DWORD PTR [edx+16], 1
; Line 193
	mov	ecx, DWORD PTR _this$[ebp]
	call	?getCollisionShape@btCollisionObject@@QAEPAVbtCollisionShape@@XZ ; btCollisionObject::getCollisionShape
	mov	DWORD PTR tv232[ebp], eax
	mov	eax, DWORD PTR tv232[ebp]
	mov	edx, DWORD PTR [eax]
	mov	esi, esp
	mov	ecx, DWORD PTR tv232[ebp]
	mov	eax, DWORD PTR [edx+44]
	call	eax
	cmp	esi, esp
	call	__RTC_CheckEsp
	fstp	DWORD PTR _margin$[ebp]
; Line 194
	lea	ecx, DWORD PTR $T65789[ebp]
	call	??0Node@btSoftBody@@QAE@XZ
	push	eax
	mov	ecx, DWORD PTR _node_count$[ebx]
	push	ecx
	mov	ecx, DWORD PTR _this$[ebp]
	add	ecx, 732				; 000002dcH
	call	?resize@?$btAlignedObjectArray@UNode@btSoftBody@@@@QAEXHABUNode@btSoftBody@@@Z ; btAlignedObjectArray<btSoftBody::Node>::resize
; Line 195
	mov	DWORD PTR _i$52500[ebp], 0
	mov	edx, DWORD PTR _node_count$[ebx]
	mov	DWORD PTR _ni$52501[ebp], edx
	jmp	SHORT $LN3@btSoftBody
$LN2@btSoftBody:
	mov	eax, DWORD PTR _i$52500[ebp]
	add	eax, 1
	mov	DWORD PTR _i$52500[ebp], eax
$LN3@btSoftBody:
	mov	ecx, DWORD PTR _i$52500[ebp]
	cmp	ecx, DWORD PTR _ni$52501[ebp]
	jge	$LN1@btSoftBody
; Line 197
	mov	edx, DWORD PTR _i$52500[ebp]
	push	edx
	mov	ecx, DWORD PTR _this$[ebp]
	add	ecx, 732				; 000002dcH
	call	??A?$btAlignedObjectArray@UNode@btSoftBody@@@@QAEAAUNode@btSoftBody@@H@Z ; btAlignedObjectArray<btSoftBody::Node>::operator[]
	mov	DWORD PTR _n$52505[ebp], eax
; Line 198
	mov	eax, DWORD PTR _n$52505[ebp]
	push	eax
	call	??$ZeroInitialize@UNode@btSoftBody@@@@YAXAAUNode@btSoftBody@@@Z ; ZeroInitialize<btSoftBody::Node>
	add	esp, 4
; Line 199
	cmp	DWORD PTR _x$[ebx], 0
	je	SHORT $LN6@btSoftBody
	mov	ecx, DWORD PTR _x$[ebx]
	mov	DWORD PTR tv257[ebp], ecx
	mov	edx, DWORD PTR _x$[ebx]
	add	edx, 16					; 00000010H
	mov	DWORD PTR _x$[ebx], edx
	jmp	SHORT $LN7@btSoftBody
$LN6@btSoftBody:
	fldz
	fstp	DWORD PTR $T65791[ebp]
	fldz
	fstp	DWORD PTR $T65792[ebp]
	fldz
	fstp	DWORD PTR $T65793[ebp]
	lea	eax, DWORD PTR $T65791[ebp]
	push	eax
	lea	ecx, DWORD PTR $T65792[ebp]
	push	ecx
	lea	edx, DWORD PTR $T65793[ebp]
	push	edx
	lea	ecx, DWORD PTR $T52510[ebp]
	call	??0btVector3@@QAE@ABM00@Z		; btVector3::btVector3
	mov	DWORD PTR tv257[ebp], eax
$LN7@btSoftBody:
	mov	eax, DWORD PTR tv257[ebp]
	mov	DWORD PTR $T65790[ebp], eax
	mov	ecx, DWORD PTR $T65790[ebp]
	mov	edx, DWORD PTR _n$52505[ebp]
	add	edx, 16					; 00000010H
	mov	eax, DWORD PTR [ecx]
	mov	DWORD PTR [edx], eax
	mov	eax, DWORD PTR [ecx+4]
	mov	DWORD PTR [edx+4], eax
	mov	eax, DWORD PTR [ecx+8]
	mov	DWORD PTR [edx+8], eax
	mov	ecx, DWORD PTR [ecx+12]
	mov	DWORD PTR [edx+12], ecx
; Line 200
	mov	edx, DWORD PTR _n$52505[ebp]
	add	edx, 16					; 00000010H
	mov	eax, DWORD PTR _n$52505[ebp]
	add	eax, 32					; 00000020H
	mov	ecx, DWORD PTR [edx]
	mov	DWORD PTR [eax], ecx
	mov	ecx, DWORD PTR [edx+4]
	mov	DWORD PTR [eax+4], ecx
	mov	ecx, DWORD PTR [edx+8]
	mov	DWORD PTR [eax+8], ecx
	mov	edx, DWORD PTR [edx+12]
	mov	DWORD PTR [eax+12], edx
; Line 201
	cmp	DWORD PTR _m$[ebx], 0
	je	SHORT $LN8@btSoftBody
	mov	eax, DWORD PTR _m$[ebx]
	fld	DWORD PTR [eax]
	fstp	DWORD PTR tv265[ebp]
	mov	ecx, DWORD PTR _m$[ebx]
	add	ecx, 4
	mov	DWORD PTR _m$[ebx], ecx
	jmp	SHORT $LN9@btSoftBody
$LN8@btSoftBody:
	fld1
	fstp	DWORD PTR tv265[ebp]
$LN9@btSoftBody:
	mov	edx, DWORD PTR _n$52505[ebp]
	fld	DWORD PTR tv265[ebp]
	fstp	DWORD PTR [edx+96]
; Line 202
	mov	eax, DWORD PTR _n$52505[ebp]
	fldz
	fcomp	DWORD PTR [eax+96]
	fnstsw	ax
	test	ah, 5
	jp	SHORT $LN10@btSoftBody
	mov	ecx, DWORD PTR _n$52505[ebp]
	fld1
	fdiv	DWORD PTR [ecx+96]
	fstp	DWORD PTR tv271[ebp]
	jmp	SHORT $LN11@btSoftBody
$LN10@btSoftBody:
	fldz
	fstp	DWORD PTR tv271[ebp]
$LN11@btSoftBody:
	mov	edx, DWORD PTR _n$52505[ebp]
	fld	DWORD PTR tv271[ebp]
	fstp	DWORD PTR [edx+96]
; Line 203
	mov	eax, DWORD PTR _n$52505[ebp]
	push	eax
	push	ecx
	fld	DWORD PTR _margin$[ebp]
	fstp	DWORD PTR [esp]
	mov	ecx, DWORD PTR _n$52505[ebp]
	add	ecx, 16					; 00000010H
	push	ecx
	lea	edx, DWORD PTR $T52515[ebp]
	push	edx
	call	?FromCR@btDbvtAabbMm@@SA?AU1@ABVbtVector3@@M@Z ; btDbvtAabbMm::FromCR
	add	esp, 12					; 0000000cH
	push	eax
	mov	ecx, DWORD PTR _this$[ebp]
	add	ecx, 964				; 000003c4H
	call	?insert@btDbvt@@QAEPAUbtDbvtNode@@ABUbtDbvtAabbMm@@PAX@Z ; btDbvt::insert
	mov	ecx, DWORD PTR _n$52505[ebp]
	mov	DWORD PTR [ecx+104], eax
; Line 204
	mov	edx, DWORD PTR _n$52505[ebp]
	mov	eax, DWORD PTR _pm$[ebp]
	mov	DWORD PTR [edx+4], eax
; Line 205
	jmp	$LN2@btSoftBody
$LN1@btSoftBody:
; Line 206
	mov	ecx, DWORD PTR _this$[ebp]
	call	?updateBounds@btSoftBody@@QAEXXZ	; btSoftBody::updateBounds
; Line 208
	mov	eax, DWORD PTR _this$[ebp]
	pop	edi
	pop	esi
	mov	esp, ebp
	pop	ebp
	mov	esp, ebx
	pop	ebx
	ret	16					; 00000010H
??0btSoftBody@@QAE@PAUbtSoftBodyWorldInfo@@HPBVbtVector3@@PBM@Z ENDP ; btSoftBody::btSoftBody
_TEXT	ENDS
PUBLIC	??0btMatrix3x3@@QAE@XZ				; btMatrix3x3::btMatrix3x3
; Function compile flags: /Odtp /RTCsu
;	COMDAT ??0btTransform@@QAE@XZ
_TEXT	SEGMENT
_this$ = -4						; size = 4
??0btTransform@@QAE@XZ PROC				; btTransform::btTransform, COMDAT
; _this$ = ecx
; File d:\專題\自建專案\自建專案\src\linearmath\bttransform.h
; Line 44
	push	ebp
	mov	ebp, esp
	push	ecx
	mov	DWORD PTR [ebp-4], -858993460		; ccccccccH
	mov	DWORD PTR _this$[ebp], ecx
	mov	ecx, DWORD PTR _this$[ebp]
	call	??0btMatrix3x3@@QAE@XZ			; btMatrix3x3::btMatrix3x3
	mov	ecx, DWORD PTR _this$[ebp]
	add	ecx, 48					; 00000030H
	call	??0btVector3@@QAE@XZ			; btVector3::btVector3
	mov	eax, DWORD PTR _this$[ebp]
	add	esp, 4
	cmp	ebp, esp
	call	__RTC_CheckEsp
	mov	esp, ebp
	pop	ebp
	ret	0
??0btTransform@@QAE@XZ ENDP				; btTransform::btTransform
; Function compile flags: /Odtp /RTCsu
_TEXT	ENDS
;	COMDAT ??0btMatrix3x3@@QAE@XZ
_TEXT	SEGMENT
_this$ = -4						; size = 4
??0btMatrix3x3@@QAE@XZ PROC				; btMatrix3x3::btMatrix3x3, COMDAT
; _this$ = ecx
; File d:\專題\自建專案\自建專案\src\linearmath\btmatrix3x3.h
; Line 55
	push	ebp
	mov	ebp, esp
	push	ecx
	mov	DWORD PTR [ebp-4], -858993460		; ccccccccH
	mov	DWORD PTR _this$[ebp], ecx
	push	OFFSET ??0btVector3@@QAE@XZ		; btVector3::btVector3
	push	3
	push	16					; 00000010H
	mov	eax, DWORD PTR _this$[ebp]
	push	eax
	call	??_H@YGXPAXIHP6EPAX0@Z@Z
	mov	eax, DWORD PTR _this$[ebp]
	add	esp, 4
	cmp	ebp, esp
	call	__RTC_CheckEsp
	mov	esp, ebp
	pop	ebp
	ret	0
??0btMatrix3x3@@QAE@XZ ENDP				; btMatrix3x3::btMatrix3x3
; Function compile flags: /Odtp /RTCsu
_TEXT	ENDS
;	COMDAT ?checkCollideWithOverride@btCollisionObject@@MBE_NPBV1@@Z
_TEXT	SEGMENT
_this$ = -4						; size = 4
___formal$ = 8						; size = 4
?checkCollideWithOverride@btCollisionObject@@MBE_NPBV1@@Z PROC ; btCollisionObject::checkCollideWithOverride, COMDAT
; _this$ = ecx
; File d:\專題\自建專案\自建專案\src\bulletcollision\collisiondispatch\btcollisionobject.h
; Line 117
	push	ebp
	mov	ebp, esp
	push	ecx
	mov	DWORD PTR [ebp-4], -858993460		; ccccccccH
	mov	DWORD PTR _this$[ebp], ecx
; Line 118
	mov	al, 1
; Line 119
	mov	esp, ebp
	pop	ebp
	ret	4
?checkCollideWithOverride@btCollisionObject@@MBE_NPBV1@@Z ENDP ; btCollisionObject::checkCollideWithOverride
; Function compile flags: /Odtp /RTCsu
_TEXT	ENDS
;	COMDAT ?getCollisionShape@btCollisionObject@@QAEPAVbtCollisionShape@@XZ
_TEXT	SEGMENT
_this$ = -4						; size = 4
?getCollisionShape@btCollisionObject@@QAEPAVbtCollisionShape@@XZ PROC ; btCollisionObject::getCollisionShape, COMDAT
; _this$ = ecx
; Line 224
	push	ebp
	mov	ebp, esp
	push	ecx
	mov	DWORD PTR [ebp-4], -858993460		; ccccccccH
	mov	DWORD PTR _this$[ebp], ecx
; Line 225
	mov	eax, DWORD PTR _this$[ebp]
	mov	eax, DWORD PTR [eax+204]
; Line 226
	mov	esp, ebp
	pop	ebp
	ret	0
?getCollisionShape@btCollisionObject@@QAEPAVbtCollisionShape@@XZ ENDP ; btCollisionObject::getCollisionShape
_TEXT	ENDS
PUBLIC	?FromCE@btDbvtAabbMm@@SA?AU1@ABVbtVector3@@0@Z	; btDbvtAabbMm::FromCE
; Function compile flags: /Odtp /RTCsu
;	COMDAT ?FromCR@btDbvtAabbMm@@SA?AU1@ABVbtVector3@@M@Z
_TEXT	SEGMENT
$T13585 = -16						; size = 16
___$ReturnUdt$ = 8					; size = 4
_c$ = 12						; size = 4
_r$ = 16						; size = 4
?FromCR@btDbvtAabbMm@@SA?AU1@ABVbtVector3@@M@Z PROC	; btDbvtAabbMm::FromCR, COMDAT
; File d:\專題\自建專案\自建專案\src\bulletcollision\broadphasecollision\btdbvt.h
; Line 406
	push	ebx
	mov	ebx, esp
	sub	esp, 8
	and	esp, -16				; fffffff0H
	add	esp, 4
	push	ebp
	mov	ebp, DWORD PTR [ebx+4]
	mov	DWORD PTR [esp+4], ebp
	mov	ebp, esp
	sub	esp, 16					; 00000010H
	mov	eax, -858993460				; ccccccccH
	mov	DWORD PTR [ebp-16], eax
	mov	DWORD PTR [ebp-12], eax
	mov	DWORD PTR [ebp-8], eax
	mov	DWORD PTR [ebp-4], eax
; Line 407
	lea	eax, DWORD PTR _r$[ebx]
	push	eax
	lea	ecx, DWORD PTR _r$[ebx]
	push	ecx
	lea	edx, DWORD PTR _r$[ebx]
	push	edx
	lea	ecx, DWORD PTR $T13585[ebp]
	call	??0btVector3@@QAE@ABM00@Z		; btVector3::btVector3
	push	eax
	mov	eax, DWORD PTR _c$[ebx]
	push	eax
	mov	ecx, DWORD PTR ___$ReturnUdt$[ebx]
	push	ecx
	call	?FromCE@btDbvtAabbMm@@SA?AU1@ABVbtVector3@@0@Z ; btDbvtAabbMm::FromCE
	add	esp, 12					; 0000000cH
	mov	eax, DWORD PTR ___$ReturnUdt$[ebx]
; Line 408
	mov	esp, ebp
	pop	ebp
	mov	esp, ebx
	pop	ebx
	ret	0
?FromCR@btDbvtAabbMm@@SA?AU1@ABVbtVector3@@M@Z ENDP	; btDbvtAabbMm::FromCR
_TEXT	ENDS
PUBLIC	??0btDbvtAabbMm@@QAE@XZ				; btDbvtAabbMm::btDbvtAabbMm
; Function compile flags: /Odtp /RTCsu
;	COMDAT ?FromCE@btDbvtAabbMm@@SA?AU1@ABVbtVector3@@0@Z
_TEXT	SEGMENT
$T13577 = -96						; size = 16
$T13576 = -80						; size = 16
_box$ = -48						; size = 32
___$ReturnUdt$ = 8					; size = 4
_c$ = 12						; size = 4
_e$ = 16						; size = 4
?FromCE@btDbvtAabbMm@@SA?AU1@ABVbtVector3@@0@Z PROC	; btDbvtAabbMm::FromCE, COMDAT
; Line 398
	push	ebx
	mov	ebx, esp
	sub	esp, 8
	and	esp, -16				; fffffff0H
	add	esp, 4
	push	ebp
	mov	ebp, DWORD PTR [ebx+4]
	mov	DWORD PTR [esp+4], ebp
	mov	ebp, esp
	sub	esp, 104				; 00000068H
	push	esi
	push	edi
	lea	edi, DWORD PTR [ebp-104]
	mov	ecx, 26					; 0000001aH
	mov	eax, -858993460				; ccccccccH
	rep stosd
; Line 399
	lea	ecx, DWORD PTR _box$[ebp]
	call	??0btDbvtAabbMm@@QAE@XZ
; Line 400
	mov	eax, DWORD PTR _e$[ebx]
	push	eax
	mov	ecx, DWORD PTR _c$[ebx]
	push	ecx
	lea	edx, DWORD PTR $T13576[ebp]
	push	edx
	call	??G@YA?AVbtVector3@@ABV0@0@Z		; operator-
	add	esp, 12					; 0000000cH
	mov	ecx, DWORD PTR [eax]
	mov	DWORD PTR _box$[ebp], ecx
	mov	edx, DWORD PTR [eax+4]
	mov	DWORD PTR _box$[ebp+4], edx
	mov	ecx, DWORD PTR [eax+8]
	mov	DWORD PTR _box$[ebp+8], ecx
	mov	edx, DWORD PTR [eax+12]
	mov	DWORD PTR _box$[ebp+12], edx
	mov	eax, DWORD PTR _e$[ebx]
	push	eax
	mov	ecx, DWORD PTR _c$[ebx]
	push	ecx
	lea	edx, DWORD PTR $T13577[ebp]
	push	edx
	call	??H@YA?AVbtVector3@@ABV0@0@Z		; operator+
	add	esp, 12					; 0000000cH
	mov	ecx, DWORD PTR [eax]
	mov	DWORD PTR _box$[ebp+16], ecx
	mov	edx, DWORD PTR [eax+4]
	mov	DWORD PTR _box$[ebp+20], edx
	mov	ecx, DWORD PTR [eax+8]
	mov	DWORD PTR _box$[ebp+24], ecx
	mov	edx, DWORD PTR [eax+12]
	mov	DWORD PTR _box$[ebp+28], edx
; Line 401
	mov	ecx, 8
	lea	esi, DWORD PTR _box$[ebp]
	mov	edi, DWORD PTR ___$ReturnUdt$[ebx]
	rep movsd
	mov	eax, DWORD PTR ___$ReturnUdt$[ebx]
; Line 402
	push	edx
	mov	ecx, ebp
	push	eax
	lea	edx, DWORD PTR $LN5@FromCE
	call	@_RTC_CheckStackVars@8
	pop	eax
	pop	edx
	pop	edi
	pop	esi
	mov	esp, ebp
	pop	ebp
	mov	esp, ebx
	pop	ebx
	ret	0
	npad	2
$LN5@FromCE:
	DD	1
	DD	$LN4@FromCE
$LN4@FromCE:
	DD	-48					; ffffffd0H
	DD	32					; 00000020H
	DD	$LN3@FromCE
$LN3@FromCE:
	DB	98					; 00000062H
	DB	111					; 0000006fH
	DB	120					; 00000078H
	DB	0
?FromCE@btDbvtAabbMm@@SA?AU1@ABVbtVector3@@0@Z ENDP	; btDbvtAabbMm::FromCE
; Function compile flags: /Odtp /RTCsu
_TEXT	ENDS
;	COMDAT ??0btDbvtAabbMm@@QAE@XZ
_TEXT	SEGMENT
_this$ = -4						; size = 4
??0btDbvtAabbMm@@QAE@XZ PROC				; btDbvtAabbMm::btDbvtAabbMm, COMDAT
; _this$ = ecx
	push	ebp
	mov	ebp, esp
	push	ecx
	mov	DWORD PTR [ebp-4], -858993460		; ccccccccH
	mov	DWORD PTR _this$[ebp], ecx
	mov	ecx, DWORD PTR _this$[ebp]
	call	??0btVector3@@QAE@XZ			; btVector3::btVector3
	mov	ecx, DWORD PTR _this$[ebp]
	add	ecx, 16					; 00000010H
	call	??0btVector3@@QAE@XZ			; btVector3::btVector3
	mov	eax, DWORD PTR _this$[ebp]
	add	esp, 4
	cmp	ebp, esp
	call	__RTC_CheckEsp
	mov	esp, ebp
	pop	ebp
	ret	0
??0btDbvtAabbMm@@QAE@XZ ENDP				; btDbvtAabbMm::btDbvtAabbMm
; Function compile flags: /Odtp /RTCsu
_TEXT	ENDS
;	COMDAT ?setCollisionShape@btSoftBody@@UAEXPAVbtCollisionShape@@@Z
_TEXT	SEGMENT
_this$ = -4						; size = 4
_collisionShape$ = 8					; size = 4
?setCollisionShape@btSoftBody@@UAEXPAVbtCollisionShape@@@Z PROC ; btSoftBody::setCollisionShape, COMDAT
; _this$ = ecx
; File d:\專題\自建專案\自建專案\src\bulletsoftbody\btsoftbody.h
; Line 707
	push	ebp
	mov	ebp, esp
	push	ecx
	mov	DWORD PTR [ebp-4], -858993460		; ccccccccH
	mov	DWORD PTR _this$[ebp], ecx
; Line 709
	mov	esp, ebp
	pop	ebp
	ret	4
?setCollisionShape@btSoftBody@@UAEXPAVbtCollisionShape@@@Z ENDP ; btSoftBody::setCollisionShape
; Function compile flags: /Odtp /RTCsu
_TEXT	ENDS
;	COMDAT ?getAabb@btSoftBody@@UBEXAAVbtVector3@@0@Z
_TEXT	SEGMENT
_this$ = -4						; size = 4
_aabbMin$ = 8						; size = 4
_aabbMax$ = 12						; size = 4
?getAabb@btSoftBody@@UBEXAAVbtVector3@@0@Z PROC		; btSoftBody::getAabb, COMDAT
; _this$ = ecx
; Line 955
	push	ebp
	mov	ebp, esp
	push	ecx
	mov	DWORD PTR [ebp-4], -858993460		; ccccccccH
	mov	DWORD PTR _this$[ebp], ecx
; Line 956
	mov	eax, DWORD PTR _this$[ebp]
	add	eax, 928				; 000003a0H
	mov	ecx, DWORD PTR _aabbMin$[ebp]
	mov	edx, DWORD PTR [eax]
	mov	DWORD PTR [ecx], edx
	mov	edx, DWORD PTR [eax+4]
	mov	DWORD PTR [ecx+4], edx
	mov	edx, DWORD PTR [eax+8]
	mov	DWORD PTR [ecx+8], edx
	mov	eax, DWORD PTR [eax+12]
	mov	DWORD PTR [ecx+12], eax
; Line 957
	mov	ecx, DWORD PTR _this$[ebp]
	add	ecx, 944				; 000003b0H
	mov	edx, DWORD PTR _aabbMax$[ebp]
	mov	eax, DWORD PTR [ecx]
	mov	DWORD PTR [edx], eax
	mov	eax, DWORD PTR [ecx+4]
	mov	DWORD PTR [edx+4], eax
	mov	eax, DWORD PTR [ecx+8]
	mov	DWORD PTR [edx+8], eax
	mov	ecx, DWORD PTR [ecx+12]
	mov	DWORD PTR [edx+12], ecx
; Line 958
	mov	esp, ebp
	pop	ebp
	ret	8
?getAabb@btSoftBody@@UBEXAAVbtVector3@@0@Z ENDP		; btSoftBody::getAabb
_TEXT	ENDS
PUBLIC	??3btCollisionObject@@SAXPAX@Z			; btCollisionObject::operator delete
PUBLIC	??1btSoftBody@@UAE@XZ				; btSoftBody::~btSoftBody
; Function compile flags: /Odtp /RTCsu
;	COMDAT ??_GbtSoftBody@@UAEPAXI@Z
_TEXT	SEGMENT
_this$ = -4						; size = 4
___flags$ = 8						; size = 4
??_GbtSoftBody@@UAEPAXI@Z PROC				; btSoftBody::`scalar deleting destructor', COMDAT
; _this$ = ecx
	push	ebp
	mov	ebp, esp
	push	ecx
	mov	DWORD PTR [ebp-4], -858993460		; ccccccccH
	mov	DWORD PTR _this$[ebp], ecx
	mov	ecx, DWORD PTR _this$[ebp]
	call	??1btSoftBody@@UAE@XZ			; btSoftBody::~btSoftBody
	mov	eax, DWORD PTR ___flags$[ebp]
	and	eax, 1
	je	SHORT $LN1@scalar
	mov	ecx, DWORD PTR _this$[ebp]
	push	ecx
	call	??3btCollisionObject@@SAXPAX@Z		; btCollisionObject::operator delete
	add	esp, 4
$LN1@scalar:
	mov	eax, DWORD PTR _this$[ebp]
	add	esp, 4
	cmp	ebp, esp
	call	__RTC_CheckEsp
	mov	esp, ebp
	pop	ebp
	ret	4
??_GbtSoftBody@@UAEPAXI@Z ENDP				; btSoftBody::`scalar deleting destructor'
_TEXT	ENDS
EXTRN	?btAlignedFreeInternal@@YAXPAX@Z:PROC		; btAlignedFreeInternal
; Function compile flags: /Odtp /RTCsu
;	COMDAT ??3btCollisionObject@@SAXPAX@Z
_TEXT	SEGMENT
_ptr$ = 8						; size = 4
??3btCollisionObject@@SAXPAX@Z PROC			; btCollisionObject::operator delete, COMDAT
; File d:\專題\自建專案\自建專案\src\bulletcollision\collisiondispatch\btcollisionobject.h
; Line 123
	push	ebp
	mov	ebp, esp
	mov	eax, DWORD PTR _ptr$[ebp]
	push	eax
	call	?btAlignedFreeInternal@@YAXPAX@Z	; btAlignedFreeInternal
	add	esp, 4
	cmp	ebp, esp
	call	__RTC_CheckEsp
	pop	ebp
	ret	0
??3btCollisionObject@@SAXPAX@Z ENDP			; btCollisionObject::operator delete
_TEXT	ENDS
PUBLIC	??0?$btAlignedObjectArray@W4_@ePSolver@btSoftBody@@@@QAE@XZ ; btAlignedObjectArray<enum btSoftBody::ePSolver::_>::btAlignedObjectArray<enum btSoftBody::ePSolver::_>
PUBLIC	??0?$btAlignedObjectArray@W4_@eVSolver@btSoftBody@@@@QAE@XZ ; btAlignedObjectArray<enum btSoftBody::eVSolver::_>::btAlignedObjectArray<enum btSoftBody::eVSolver::_>
; Function compile flags: /Odtp /RTCsu
;	COMDAT ??0Config@btSoftBody@@QAE@XZ
_TEXT	SEGMENT
_this$ = -4						; size = 4
??0Config@btSoftBody@@QAE@XZ PROC			; btSoftBody::Config::Config, COMDAT
; _this$ = ecx
	push	ebp
	mov	ebp, esp
	push	ecx
	mov	DWORD PTR [ebp-4], -858993460		; ccccccccH
	mov	DWORD PTR _this$[ebp], ecx
	mov	ecx, DWORD PTR _this$[ebp]
	add	ecx, 104				; 00000068H
	call	??0?$btAlignedObjectArray@W4_@eVSolver@btSoftBody@@@@QAE@XZ ; btAlignedObjectArray<enum btSoftBody::eVSolver::_>::btAlignedObjectArray<enum btSoftBody::eVSolver::_>
	mov	ecx, DWORD PTR _this$[ebp]
	add	ecx, 124				; 0000007cH
	call	??0?$btAlignedObjectArray@W4_@ePSolver@btSoftBody@@@@QAE@XZ ; btAlignedObjectArray<enum btSoftBody::ePSolver::_>::btAlignedObjectArray<enum btSoftBody::ePSolver::_>
	mov	ecx, DWORD PTR _this$[ebp]
	add	ecx, 144				; 00000090H
	call	??0?$btAlignedObjectArray@W4_@ePSolver@btSoftBody@@@@QAE@XZ ; btAlignedObjectArray<enum btSoftBody::ePSolver::_>::btAlignedObjectArray<enum btSoftBody::ePSolver::_>
	mov	eax, DWORD PTR _this$[ebp]
	add	esp, 4
	cmp	ebp, esp
	call	__RTC_CheckEsp
	mov	esp, ebp
	pop	ebp
	ret	0
??0Config@btSoftBody@@QAE@XZ ENDP			; btSoftBody::Config::Config
_TEXT	ENDS
PUBLIC	??0?$btAlignedObjectArray@M@@QAE@XZ		; btAlignedObjectArray<float>::btAlignedObjectArray<float>
PUBLIC	??0?$btAlignedObjectArray@VbtVector3@@@@QAE@XZ	; btAlignedObjectArray<btVector3>::btAlignedObjectArray<btVector3>
; Function compile flags: /Odtp /RTCsu
;	COMDAT ??0Pose@btSoftBody@@QAE@XZ
_TEXT	SEGMENT
_this$ = -4						; size = 4
??0Pose@btSoftBody@@QAE@XZ PROC				; btSoftBody::Pose::Pose, COMDAT
; _this$ = ecx
	push	ebp
	mov	ebp, esp
	push	ecx
	mov	DWORD PTR [ebp-4], -858993460		; ccccccccH
	mov	DWORD PTR _this$[ebp], ecx
	mov	ecx, DWORD PTR _this$[ebp]
	add	ecx, 8
	call	??0?$btAlignedObjectArray@VbtVector3@@@@QAE@XZ ; btAlignedObjectArray<btVector3>::btAlignedObjectArray<btVector3>
	mov	ecx, DWORD PTR _this$[ebp]
	add	ecx, 28					; 0000001cH
	call	??0?$btAlignedObjectArray@M@@QAE@XZ	; btAlignedObjectArray<float>::btAlignedObjectArray<float>
	mov	ecx, DWORD PTR _this$[ebp]
	add	ecx, 48					; 00000030H
	call	??0btVector3@@QAE@XZ			; btVector3::btVector3
	mov	ecx, DWORD PTR _this$[ebp]
	add	ecx, 64					; 00000040H
	call	??0btMatrix3x3@@QAE@XZ			; btMatrix3x3::btMatrix3x3
	mov	ecx, DWORD PTR _this$[ebp]
	add	ecx, 112				; 00000070H
	call	??0btMatrix3x3@@QAE@XZ			; btMatrix3x3::btMatrix3x3
	mov	ecx, DWORD PTR _this$[ebp]
	add	ecx, 160				; 000000a0H
	call	??0btMatrix3x3@@QAE@XZ			; btMatrix3x3::btMatrix3x3
	mov	eax, DWORD PTR _this$[ebp]
	add	esp, 4
	cmp	ebp, esp
	call	__RTC_CheckEsp
	mov	esp, ebp
	pop	ebp
	ret	0
??0Pose@btSoftBody@@QAE@XZ ENDP				; btSoftBody::Pose::Pose
_TEXT	ENDS
PUBLIC	??0Feature@btSoftBody@@QAE@XZ			; btSoftBody::Feature::Feature
; Function compile flags: /Odtp /RTCsu
;	COMDAT ??0Node@btSoftBody@@QAE@XZ
_TEXT	SEGMENT
_this$ = -4						; size = 4
??0Node@btSoftBody@@QAE@XZ PROC				; btSoftBody::Node::Node, COMDAT
; _this$ = ecx
	push	ebp
	mov	ebp, esp
	push	ecx
	mov	DWORD PTR [ebp-4], -858993460		; ccccccccH
	mov	DWORD PTR _this$[ebp], ecx
	mov	ecx, DWORD PTR _this$[ebp]
	call	??0Feature@btSoftBody@@QAE@XZ
	mov	ecx, DWORD PTR _this$[ebp]
	add	ecx, 16					; 00000010H
	call	??0btVector3@@QAE@XZ			; btVector3::btVector3
	mov	ecx, DWORD PTR _this$[ebp]
	add	ecx, 32					; 00000020H
	call	??0btVector3@@QAE@XZ			; btVector3::btVector3
	mov	ecx, DWORD PTR _this$[ebp]
	add	ecx, 48					; 00000030H
	call	??0btVector3@@QAE@XZ			; btVector3::btVector3
	mov	ecx, DWORD PTR _this$[ebp]
	add	ecx, 64					; 00000040H
	call	??0btVector3@@QAE@XZ			; btVector3::btVector3
	mov	ecx, DWORD PTR _this$[ebp]
	add	ecx, 80					; 00000050H
	call	??0btVector3@@QAE@XZ			; btVector3::btVector3
	mov	eax, DWORD PTR _this$[ebp]
	add	esp, 4
	cmp	ebp, esp
	call	__RTC_CheckEsp
	mov	esp, ebp
	pop	ebp
	ret	0
??0Node@btSoftBody@@QAE@XZ ENDP				; btSoftBody::Node::Node
_TEXT	ENDS
PUBLIC	??0Element@btSoftBody@@QAE@XZ			; btSoftBody::Element::Element
; Function compile flags: /Odtp /RTCsu
;	COMDAT ??0Feature@btSoftBody@@QAE@XZ
_TEXT	SEGMENT
_this$ = -4						; size = 4
??0Feature@btSoftBody@@QAE@XZ PROC			; btSoftBody::Feature::Feature, COMDAT
; _this$ = ecx
	push	ebp
	mov	ebp, esp
	push	ecx
	mov	DWORD PTR [ebp-4], -858993460		; ccccccccH
	mov	DWORD PTR _this$[ebp], ecx
	mov	ecx, DWORD PTR _this$[ebp]
	call	??0Element@btSoftBody@@QAE@XZ		; btSoftBody::Element::Element
	mov	eax, DWORD PTR _this$[ebp]
	add	esp, 4
	cmp	ebp, esp
	call	__RTC_CheckEsp
	mov	esp, ebp
	pop	ebp
	ret	0
??0Feature@btSoftBody@@QAE@XZ ENDP			; btSoftBody::Feature::Feature
; Function compile flags: /Odtp /RTCsu
_TEXT	ENDS
;	COMDAT ??0Element@btSoftBody@@QAE@XZ
_TEXT	SEGMENT
_this$ = -4						; size = 4
??0Element@btSoftBody@@QAE@XZ PROC			; btSoftBody::Element::Element, COMDAT
; _this$ = ecx
; File d:\專題\自建專案\自建專案\src\bulletsoftbody\btsoftbody.h
; Line 204
	push	ebp
	mov	ebp, esp
	push	ecx
	mov	DWORD PTR [ebp-4], -858993460		; ccccccccH
	mov	DWORD PTR _this$[ebp], ecx
	mov	eax, DWORD PTR _this$[ebp]
	mov	DWORD PTR [eax], 0
	mov	eax, DWORD PTR _this$[ebp]
	mov	esp, ebp
	pop	ebp
	ret	0
??0Element@btSoftBody@@QAE@XZ ENDP			; btSoftBody::Element::Element
_TEXT	ENDS
PUBLIC	??0btSoftBody@@QAE@PAUbtSoftBodyWorldInfo@@@Z	; btSoftBody::btSoftBody
; Function compile flags: /Odtp /RTCsu
;	COMDAT ??0btSoftBody@@QAE@PAUbtSoftBodyWorldInfo@@@Z
_TEXT	SEGMENT
_this$ = -4						; size = 4
_worldInfo$ = 8						; size = 4
??0btSoftBody@@QAE@PAUbtSoftBodyWorldInfo@@@Z PROC	; btSoftBody::btSoftBody, COMDAT
; _this$ = ecx
; File d:\專題\自建專案\自建專案\src\bulletsoftbody\btsoftbody.cpp
; Line 212
	push	ebp
	mov	ebp, esp
	push	ecx
	mov	DWORD PTR [ebp-4], -858993460		; ccccccccH
	mov	DWORD PTR _this$[ebp], ecx
	mov	ecx, DWORD PTR _this$[ebp]
	call	??0btCollisionObject@@QAE@XZ		; btCollisionObject::btCollisionObject
	mov	eax, DWORD PTR _this$[ebp]
	mov	DWORD PTR [eax], OFFSET ??_7btSoftBody@@6B@
	mov	ecx, DWORD PTR _this$[ebp]
	add	ecx, 288				; 00000120H
	call	??0?$btAlignedObjectArray@PBVbtCollisionObject@@@@QAE@XZ ; btAlignedObjectArray<btCollisionObject const *>::btAlignedObjectArray<btCollisionObject const *>
	mov	ecx, DWORD PTR _this$[ebp]
	add	ecx, 312				; 00000138H
	call	??0Config@btSoftBody@@QAE@XZ
	mov	ecx, DWORD PTR _this$[ebp]
	add	ecx, 496				; 000001f0H
	call	??0Pose@btSoftBody@@QAE@XZ
	mov	ecx, DWORD PTR _this$[ebp]
	mov	edx, DWORD PTR _worldInfo$[ebp]
	mov	DWORD PTR [ecx+708], edx
	mov	ecx, DWORD PTR _this$[ebp]
	add	ecx, 712				; 000002c8H
	call	??0?$btAlignedObjectArray@UNote@btSoftBody@@@@QAE@XZ ; btAlignedObjectArray<btSoftBody::Note>::btAlignedObjectArray<btSoftBody::Note>
	mov	ecx, DWORD PTR _this$[ebp]
	add	ecx, 732				; 000002dcH
	call	??0?$btAlignedObjectArray@UNode@btSoftBody@@@@QAE@XZ ; btAlignedObjectArray<btSoftBody::Node>::btAlignedObjectArray<btSoftBody::Node>
	mov	ecx, DWORD PTR _this$[ebp]
	add	ecx, 752				; 000002f0H
	call	??0?$btAlignedObjectArray@ULink@btSoftBody@@@@QAE@XZ ; btAlignedObjectArray<btSoftBody::Link>::btAlignedObjectArray<btSoftBody::Link>
	mov	ecx, DWORD PTR _this$[ebp]
	add	ecx, 772				; 00000304H
	call	??0?$btAlignedObjectArray@UFace@btSoftBody@@@@QAE@XZ ; btAlignedObjectArray<btSoftBody::Face>::btAlignedObjectArray<btSoftBody::Face>
	mov	ecx, DWORD PTR _this$[ebp]
	add	ecx, 792				; 00000318H
	call	??0?$btAlignedObjectArray@UTetra@btSoftBody@@@@QAE@XZ ; btAlignedObjectArray<btSoftBody::Tetra>::btAlignedObjectArray<btSoftBody::Tetra>
	mov	ecx, DWORD PTR _this$[ebp]
	add	ecx, 812				; 0000032cH
	call	??0?$btAlignedObjectArray@UAnchor@btSoftBody@@@@QAE@XZ ; btAlignedObjectArray<btSoftBody::Anchor>::btAlignedObjectArray<btSoftBody::Anchor>
	mov	ecx, DWORD PTR _this$[ebp]
	add	ecx, 832				; 00000340H
	call	??0?$btAlignedObjectArray@URContact@btSoftBody@@@@QAE@XZ ; btAlignedObjectArray<btSoftBody::RContact>::btAlignedObjectArray<btSoftBody::RContact>
	mov	ecx, DWORD PTR _this$[ebp]
	add	ecx, 852				; 00000354H
	call	??0?$btAlignedObjectArray@USContact@btSoftBody@@@@QAE@XZ ; btAlignedObjectArray<btSoftBody::SContact>::btAlignedObjectArray<btSoftBody::SContact>
	mov	ecx, DWORD PTR _this$[ebp]
	add	ecx, 872				; 00000368H
	call	??0?$btAlignedObjectArray@PAUJoint@btSoftBody@@@@QAE@XZ ; btAlignedObjectArray<btSoftBody::Joint *>::btAlignedObjectArray<btSoftBody::Joint *>
	mov	ecx, DWORD PTR _this$[ebp]
	add	ecx, 892				; 0000037cH
	call	??0?$btAlignedObjectArray@PAUMaterial@btSoftBody@@@@QAE@XZ ; btAlignedObjectArray<btSoftBody::Material *>::btAlignedObjectArray<btSoftBody::Material *>
	push	OFFSET ??0btVector3@@QAE@XZ		; btVector3::btVector3
	push	2
	push	16					; 00000010H
	mov	eax, DWORD PTR _this$[ebp]
	add	eax, 928				; 000003a0H
	push	eax
	call	??_H@YGXPAXIHP6EPAX0@Z@Z
	mov	ecx, DWORD PTR _this$[ebp]
	add	ecx, 964				; 000003c4H
	call	??0btDbvt@@QAE@XZ			; btDbvt::btDbvt
	mov	ecx, DWORD PTR _this$[ebp]
	add	ecx, 1024				; 00000400H
	call	??0btDbvt@@QAE@XZ			; btDbvt::btDbvt
	mov	ecx, DWORD PTR _this$[ebp]
	add	ecx, 1084				; 0000043cH
	call	??0btDbvt@@QAE@XZ			; btDbvt::btDbvt
	mov	ecx, DWORD PTR _this$[ebp]
	add	ecx, 1144				; 00000478H
	call	??0?$btAlignedObjectArray@PAUCluster@btSoftBody@@@@QAE@XZ ; btAlignedObjectArray<btSoftBody::Cluster *>::btAlignedObjectArray<btSoftBody::Cluster *>
	mov	ecx, DWORD PTR _this$[ebp]
	add	ecx, 1164				; 0000048cH
	call	??0?$btAlignedObjectArray@_N@@QAE@XZ	; btAlignedObjectArray<bool>::btAlignedObjectArray<bool>
	mov	ecx, DWORD PTR _this$[ebp]
	add	ecx, 1184				; 000004a0H
	call	??0btTransform@@QAE@XZ			; btTransform::btTransform
	mov	ecx, DWORD PTR _this$[ebp]
	add	ecx, 1248				; 000004e0H
	call	??0btVector3@@QAE@XZ			; btVector3::btVector3
	mov	ecx, DWORD PTR _this$[ebp]
	add	ecx, 1268				; 000004f4H
	call	??0?$btAlignedObjectArray@H@@QAE@XZ	; btAlignedObjectArray<int>::btAlignedObjectArray<int>
; Line 213
	mov	ecx, DWORD PTR _this$[ebp]
	call	?initDefaults@btSoftBody@@QAEXXZ	; btSoftBody::initDefaults
; Line 214
	mov	eax, DWORD PTR _this$[ebp]
	add	esp, 4
	cmp	ebp, esp
	call	__RTC_CheckEsp
	mov	esp, ebp
	pop	ebp
	ret	4
??0btSoftBody@@QAE@PAUbtSoftBodyWorldInfo@@@Z ENDP	; btSoftBody::btSoftBody
_TEXT	ENDS
PUBLIC	__real@3e800000
PUBLIC	??0btSoftBodyCollisionShape@@QAE@PAVbtSoftBody@@@Z ; btSoftBodyCollisionShape::btSoftBodyCollisionShape
PUBLIC	??2btConcaveShape@@SAPAXI@Z			; btConcaveShape::operator new
PUBLIC	?setSolver@btSoftBody@@QAEXW4_@eSolverPresets@1@@Z ; btSoftBody::setSolver
PUBLIC	?setIdentity@btTransform@@QAEXXZ		; btTransform::setIdentity
PUBLIC	?setIdentity@btMatrix3x3@@QAEXXZ		; btMatrix3x3::setIdentity
PUBLIC	__real@3f000000
PUBLIC	__real@3f333333
PUBLIC	__real@3dcccccd
PUBLIC	__real@3e4ccccd
;	COMDAT __real@3e800000
CONST	SEGMENT
__real@3e800000 DD 03e800000r			; 0.25
CONST	ENDS
;	COMDAT __real@3f000000
CONST	SEGMENT
__real@3f000000 DD 03f000000r			; 0.5
CONST	ENDS
;	COMDAT __real@3f333333
CONST	SEGMENT
__real@3f333333 DD 03f333333r			; 0.7
CONST	ENDS
;	COMDAT __real@3dcccccd
CONST	SEGMENT
__real@3dcccccd DD 03dcccccdr			; 0.1
CONST	ENDS
;	COMDAT __real@3e4ccccd
CONST	SEGMENT
__real@3e4ccccd DD 03e4ccccdr			; 0.2
; Function compile flags: /Odtp /RTCsu
CONST	ENDS
;	COMDAT ?initDefaults@btSoftBody@@QAEXXZ
_TEXT	SEGMENT
tv214 = -136						; size = 4
$T65853 = -132						; size = 4
$T65852 = -128						; size = 4
$T65851 = -124						; size = 4
$T65848 = -120						; size = 4
$T65847 = -116						; size = 4
$T65846 = -112						; size = 4
$T65845 = -108						; size = 4
$T65844 = -104						; size = 4
$T65843 = -100						; size = 4
$T65842 = -96						; size = 4
$T65841 = -92						; size = 4
$T65840 = -88						; size = 4
$T65839 = -84						; size = 4
$T52567 = -80						; size = 16
$T52560 = -64						; size = 16
$T52556 = -48						; size = 16
$T52552 = -32						; size = 16
_this$ = -4						; size = 4
?initDefaults@btSoftBody@@QAEXXZ PROC			; btSoftBody::initDefaults, COMDAT
; _this$ = ecx
; Line 218
	push	ebx
	mov	ebx, esp
	sub	esp, 8
	and	esp, -16				; fffffff0H
	add	esp, 4
	push	ebp
	mov	ebp, DWORD PTR [ebx+4]
	mov	DWORD PTR [esp+4], ebp
	mov	ebp, esp
	sub	esp, 140				; 0000008cH
	push	esi
	push	edi
	push	ecx
	lea	edi, DWORD PTR [ebp-140]
	mov	ecx, 35					; 00000023H
	mov	eax, -858993460				; ccccccccH
	rep stosd
	pop	ecx
	mov	DWORD PTR _this$[ebp], ecx
; Line 219
	mov	eax, DWORD PTR _this$[ebp]
	mov	DWORD PTR [eax+248], 8
; Line 220
	mov	ecx, DWORD PTR _this$[ebp]
	mov	DWORD PTR [ecx+312], 0
; Line 221
	mov	edx, DWORD PTR _this$[ebp]
	fld1
	fstp	DWORD PTR [edx+316]
; Line 222
	mov	eax, DWORD PTR _this$[ebp]
	fldz
	fstp	DWORD PTR [eax+324]
; Line 223
	mov	ecx, DWORD PTR _this$[ebp]
	fldz
	fstp	DWORD PTR [ecx+328]
; Line 224
	mov	edx, DWORD PTR _this$[ebp]
	fldz
	fstp	DWORD PTR [edx+320]
; Line 225
	mov	eax, DWORD PTR _this$[ebp]
	fldz
	fstp	DWORD PTR [eax+332]
; Line 226
	mov	ecx, DWORD PTR _this$[ebp]
	fldz
	fstp	DWORD PTR [ecx+336]
; Line 227
	mov	edx, DWORD PTR _this$[ebp]
	fld	DWORD PTR __real@3e4ccccd
	fstp	DWORD PTR [edx+340]
; Line 228
	mov	eax, DWORD PTR _this$[ebp]
	fldz
	fstp	DWORD PTR [eax+344]
; Line 229
	mov	ecx, DWORD PTR _this$[ebp]
	fld1
	fstp	DWORD PTR [ecx+348]
; Line 230
	mov	edx, DWORD PTR _this$[ebp]
	fld	DWORD PTR __real@3dcccccd
	fstp	DWORD PTR [edx+352]
; Line 231
	mov	eax, DWORD PTR _this$[ebp]
	fld1
	fstp	DWORD PTR [eax+356]
; Line 232
	mov	ecx, DWORD PTR _this$[ebp]
	fld	DWORD PTR __real@3f333333
	fstp	DWORD PTR [ecx+360]
; Line 233
	mov	edx, DWORD PTR _this$[ebp]
	fld	DWORD PTR __real@3dcccccd
	fstp	DWORD PTR [edx+364]
; Line 234
	mov	eax, DWORD PTR _this$[ebp]
	fld1
	fstp	DWORD PTR [eax+368]
; Line 235
	mov	ecx, DWORD PTR _this$[ebp]
	fld	DWORD PTR __real@3f000000
	fstp	DWORD PTR [ecx+372]
; Line 236
	mov	edx, DWORD PTR _this$[ebp]
	fld	DWORD PTR __real@3f000000
	fstp	DWORD PTR [edx+376]
; Line 237
	mov	eax, DWORD PTR _this$[ebp]
	fld	DWORD PTR __real@3f000000
	fstp	DWORD PTR [eax+380]
; Line 238
	mov	ecx, DWORD PTR _this$[ebp]
	fld	DWORD PTR __real@3f000000
	fstp	DWORD PTR [ecx+384]
; Line 239
	mov	edx, DWORD PTR _this$[ebp]
	fld1
	fstp	DWORD PTR [edx+388]
; Line 240
	mov	eax, DWORD PTR _this$[ebp]
	fld1
	fstp	DWORD PTR [eax+392]
; Line 241
	mov	ecx, DWORD PTR _this$[ebp]
	mov	DWORD PTR [ecx+396], 0
; Line 242
	mov	edx, DWORD PTR _this$[ebp]
	mov	DWORD PTR [edx+400], 1
; Line 243
	mov	eax, DWORD PTR _this$[ebp]
	mov	DWORD PTR [eax+404], 0
; Line 244
	mov	ecx, DWORD PTR _this$[ebp]
	mov	DWORD PTR [ecx+408], 4
; Line 245
	mov	edx, DWORD PTR _this$[ebp]
	mov	DWORD PTR [edx+412], 1
; Line 246
	mov	eax, DWORD PTR _this$[ebp]
	mov	BYTE PTR [eax+496], 0
; Line 247
	mov	ecx, DWORD PTR _this$[ebp]
	mov	BYTE PTR [ecx+497], 0
; Line 248
	mov	edx, DWORD PTR _this$[ebp]
	fldz
	fstp	DWORD PTR [edx+500]
; Line 249
	fldz
	fstp	DWORD PTR $T65839[ebp]
	fldz
	fstp	DWORD PTR $T65840[ebp]
	fldz
	fstp	DWORD PTR $T65841[ebp]
	lea	eax, DWORD PTR $T65839[ebp]
	push	eax
	lea	ecx, DWORD PTR $T65840[ebp]
	push	ecx
	lea	edx, DWORD PTR $T65841[ebp]
	push	edx
	lea	ecx, DWORD PTR $T52552[ebp]
	call	??0btVector3@@QAE@ABM00@Z		; btVector3::btVector3
	mov	ecx, DWORD PTR _this$[ebp]
	add	ecx, 544				; 00000220H
	mov	edx, DWORD PTR [eax]
	mov	DWORD PTR [ecx], edx
	mov	edx, DWORD PTR [eax+4]
	mov	DWORD PTR [ecx+4], edx
	mov	edx, DWORD PTR [eax+8]
	mov	DWORD PTR [ecx+8], edx
	mov	eax, DWORD PTR [eax+12]
	mov	DWORD PTR [ecx+12], eax
; Line 250
	mov	ecx, DWORD PTR _this$[ebp]
	add	ecx, 560				; 00000230H
	call	?setIdentity@btMatrix3x3@@QAEXXZ	; btMatrix3x3::setIdentity
; Line 251
	mov	ecx, DWORD PTR _this$[ebp]
	add	ecx, 608				; 00000260H
	call	?setIdentity@btMatrix3x3@@QAEXXZ	; btMatrix3x3::setIdentity
; Line 252
	mov	ecx, DWORD PTR _this$[ebp]
	mov	DWORD PTR [ecx+704], 0
; Line 253
	mov	edx, DWORD PTR _this$[ebp]
	fldz
	fstp	DWORD PTR [edx+912]
; Line 254
	mov	eax, DWORD PTR _this$[ebp]
	mov	BYTE PTR [eax+960], 1
; Line 255
	fldz
	fstp	DWORD PTR $T65842[ebp]
	fldz
	fstp	DWORD PTR $T65843[ebp]
	fldz
	fstp	DWORD PTR $T65844[ebp]
	lea	ecx, DWORD PTR $T65842[ebp]
	push	ecx
	lea	edx, DWORD PTR $T65843[ebp]
	push	edx
	lea	eax, DWORD PTR $T65844[ebp]
	push	eax
	lea	ecx, DWORD PTR $T52556[ebp]
	call	??0btVector3@@QAE@ABM00@Z		; btVector3::btVector3
	mov	ecx, DWORD PTR _this$[ebp]
	add	ecx, 928				; 000003a0H
	mov	edx, DWORD PTR [eax]
	mov	DWORD PTR [ecx], edx
	mov	edx, DWORD PTR [eax+4]
	mov	DWORD PTR [ecx+4], edx
	mov	edx, DWORD PTR [eax+8]
	mov	DWORD PTR [ecx+8], edx
	mov	eax, DWORD PTR [eax+12]
	mov	DWORD PTR [ecx+12], eax
; Line 256
	fldz
	fstp	DWORD PTR $T65845[ebp]
	fldz
	fstp	DWORD PTR $T65846[ebp]
	fldz
	fstp	DWORD PTR $T65847[ebp]
	lea	ecx, DWORD PTR $T65845[ebp]
	push	ecx
	lea	edx, DWORD PTR $T65846[ebp]
	push	edx
	lea	eax, DWORD PTR $T65847[ebp]
	push	eax
	lea	ecx, DWORD PTR $T52560[ebp]
	call	??0btVector3@@QAE@ABM00@Z		; btVector3::btVector3
	mov	ecx, DWORD PTR _this$[ebp]
	add	ecx, 944				; 000003b0H
	mov	edx, DWORD PTR [eax]
	mov	DWORD PTR [ecx], edx
	mov	edx, DWORD PTR [eax+4]
	mov	DWORD PTR [ecx+4], edx
	mov	edx, DWORD PTR [eax+8]
	mov	DWORD PTR [ecx+8], edx
	mov	eax, DWORD PTR [eax+12]
	mov	DWORD PTR [ecx+12], eax
; Line 257
	mov	ecx, DWORD PTR _this$[ebp]
	add	ecx, 16					; 00000010H
	call	?setIdentity@btTransform@@QAEXXZ	; btTransform::setIdentity
; Line 258
	push	0
	mov	ecx, DWORD PTR _this$[ebp]
	call	?setSolver@btSoftBody@@QAEXW4_@eSolverPresets@1@@Z ; btSoftBody::setSolver
; Line 262
	push	32					; 00000020H
	call	??2btConcaveShape@@SAPAXI@Z		; btConcaveShape::operator new
	add	esp, 4
	mov	DWORD PTR $T65848[ebp], eax
	cmp	DWORD PTR $T65848[ebp], 0
	je	SHORT $LN3@initDefaul
	mov	ecx, DWORD PTR _this$[ebp]
	push	ecx
	mov	ecx, DWORD PTR $T65848[ebp]
	call	??0btSoftBodyCollisionShape@@QAE@PAVbtSoftBody@@@Z ; btSoftBodyCollisionShape::btSoftBodyCollisionShape
	mov	DWORD PTR tv214[ebp], eax
	jmp	SHORT $LN4@initDefaul
$LN3@initDefaul:
	mov	DWORD PTR tv214[ebp], 0
$LN4@initDefaul:
	mov	edx, DWORD PTR _this$[ebp]
	mov	eax, DWORD PTR tv214[ebp]
	mov	DWORD PTR [edx+204], eax
; Line 263
	mov	esi, esp
	push	ecx
	fld	DWORD PTR __real@3e800000
	fstp	DWORD PTR [esp]
	mov	ecx, DWORD PTR _this$[ebp]
	mov	edx, DWORD PTR [ecx+204]
	mov	eax, DWORD PTR _this$[ebp]
	mov	ecx, DWORD PTR [eax+204]
	mov	edx, DWORD PTR [edx]
	mov	eax, DWORD PTR [edx+40]
	call	eax
	cmp	esi, esp
	call	__RTC_CheckEsp
; Line 265
	mov	ecx, DWORD PTR _this$[ebp]
	add	ecx, 1184				; 000004a0H
	call	?setIdentity@btTransform@@QAEXXZ	; btTransform::setIdentity
; Line 267
	fldz
	fstp	DWORD PTR $T65851[ebp]
	fldz
	fstp	DWORD PTR $T65852[ebp]
	fldz
	fstp	DWORD PTR $T65853[ebp]
	lea	ecx, DWORD PTR $T65851[ebp]
	push	ecx
	lea	edx, DWORD PTR $T65852[ebp]
	push	edx
	lea	eax, DWORD PTR $T65853[ebp]
	push	eax
	lea	ecx, DWORD PTR $T52567[ebp]
	call	??0btVector3@@QAE@ABM00@Z		; btVector3::btVector3
	mov	ecx, DWORD PTR _this$[ebp]
	add	ecx, 1248				; 000004e0H
	mov	edx, DWORD PTR [eax]
	mov	DWORD PTR [ecx], edx
	mov	edx, DWORD PTR [eax+4]
	mov	DWORD PTR [ecx+4], edx
	mov	edx, DWORD PTR [eax+8]
	mov	DWORD PTR [ecx+8], edx
	mov	eax, DWORD PTR [eax+12]
	mov	DWORD PTR [ecx+12], eax
; Line 268
	mov	ecx, DWORD PTR _this$[ebp]
	fld1
	fstp	DWORD PTR [ecx+1264]
; Line 269
	pop	edi
	pop	esi
	mov	esp, ebp
	pop	ebp
	mov	esp, ebx
	pop	ebx
	ret	0
?initDefaults@btSoftBody@@QAEXXZ ENDP			; btSoftBody::initDefaults
_TEXT	ENDS
PUBLIC	?setValue@btMatrix3x3@@QAEXABM00000000@Z	; btMatrix3x3::setValue
; Function compile flags: /Odtp /RTCsu
;	COMDAT ?setIdentity@btMatrix3x3@@QAEXXZ
_TEXT	SEGMENT
$T65874 = -40						; size = 4
$T65873 = -36						; size = 4
$T65872 = -32						; size = 4
$T65871 = -28						; size = 4
$T65870 = -24						; size = 4
$T65869 = -20						; size = 4
$T65868 = -16						; size = 4
$T65867 = -12						; size = 4
$T65866 = -8						; size = 4
_this$ = -4						; size = 4
?setIdentity@btMatrix3x3@@QAEXXZ PROC			; btMatrix3x3::setIdentity, COMDAT
; _this$ = ecx
; File d:\專題\自建專案\自建專案\src\linearmath\btmatrix3x3.h
; Line 318
	push	ebp
	mov	ebp, esp
	sub	esp, 40					; 00000028H
	push	edi
	push	ecx
	lea	edi, DWORD PTR [ebp-40]
	mov	ecx, 10					; 0000000aH
	mov	eax, -858993460				; ccccccccH
	rep stosd
	pop	ecx
	mov	DWORD PTR _this$[ebp], ecx
; Line 326
	fld1
	fstp	DWORD PTR $T65866[ebp]
	fldz
	fstp	DWORD PTR $T65867[ebp]
	fldz
	fstp	DWORD PTR $T65868[ebp]
	fldz
	fstp	DWORD PTR $T65869[ebp]
	fld1
	fstp	DWORD PTR $T65870[ebp]
	fldz
	fstp	DWORD PTR $T65871[ebp]
	fldz
	fstp	DWORD PTR $T65872[ebp]
	fldz
	fstp	DWORD PTR $T65873[ebp]
	fld1
	fstp	DWORD PTR $T65874[ebp]
	lea	eax, DWORD PTR $T65866[ebp]
	push	eax
	lea	ecx, DWORD PTR $T65867[ebp]
	push	ecx
	lea	edx, DWORD PTR $T65868[ebp]
	push	edx
	lea	eax, DWORD PTR $T65869[ebp]
	push	eax
	lea	ecx, DWORD PTR $T65870[ebp]
	push	ecx
	lea	edx, DWORD PTR $T65871[ebp]
	push	edx
	lea	eax, DWORD PTR $T65872[ebp]
	push	eax
	lea	ecx, DWORD PTR $T65873[ebp]
	push	ecx
	lea	edx, DWORD PTR $T65874[ebp]
	push	edx
	mov	ecx, DWORD PTR _this$[ebp]
	call	?setValue@btMatrix3x3@@QAEXABM00000000@Z ; btMatrix3x3::setValue
; Line 328
	pop	edi
	add	esp, 40					; 00000028H
	cmp	ebp, esp
	call	__RTC_CheckEsp
	mov	esp, ebp
	pop	ebp
	ret	0
?setIdentity@btMatrix3x3@@QAEXXZ ENDP			; btMatrix3x3::setIdentity
_TEXT	ENDS
PUBLIC	?setValue@btVector3@@QAEXABM00@Z		; btVector3::setValue
; Function compile flags: /Odtp /RTCsu
;	COMDAT ?setValue@btMatrix3x3@@QAEXABM00000000@Z
_TEXT	SEGMENT
_this$ = -4						; size = 4
_xx$ = 8						; size = 4
_xy$ = 12						; size = 4
_xz$ = 16						; size = 4
_yx$ = 20						; size = 4
_yy$ = 24						; size = 4
_yz$ = 28						; size = 4
_zx$ = 32						; size = 4
_zy$ = 36						; size = 4
_zz$ = 40						; size = 4
?setValue@btMatrix3x3@@QAEXABM00000000@Z PROC		; btMatrix3x3::setValue, COMDAT
; _this$ = ecx
; Line 201
	push	ebp
	mov	ebp, esp
	push	ecx
	mov	DWORD PTR [ebp-4], -858993460		; ccccccccH
	mov	DWORD PTR _this$[ebp], ecx
; Line 202
	mov	eax, DWORD PTR _xz$[ebp]
	push	eax
	mov	ecx, DWORD PTR _xy$[ebp]
	push	ecx
	mov	edx, DWORD PTR _xx$[ebp]
	push	edx
	mov	ecx, DWORD PTR _this$[ebp]
	call	?setValue@btVector3@@QAEXABM00@Z	; btVector3::setValue
; Line 203
	mov	eax, DWORD PTR _yz$[ebp]
	push	eax
	mov	ecx, DWORD PTR _yy$[ebp]
	push	ecx
	mov	edx, DWORD PTR _yx$[ebp]
	push	edx
	mov	ecx, DWORD PTR _this$[ebp]
	add	ecx, 16					; 00000010H
	call	?setValue@btVector3@@QAEXABM00@Z	; btVector3::setValue
; Line 204
	mov	eax, DWORD PTR _zz$[ebp]
	push	eax
	mov	ecx, DWORD PTR _zy$[ebp]
	push	ecx
	mov	edx, DWORD PTR _zx$[ebp]
	push	edx
	mov	ecx, DWORD PTR _this$[ebp]
	add	ecx, 32					; 00000020H
	call	?setValue@btVector3@@QAEXABM00@Z	; btVector3::setValue
; Line 205
	add	esp, 4
	cmp	ebp, esp
	call	__RTC_CheckEsp
	mov	esp, ebp
	pop	ebp
	ret	36					; 00000024H
?setValue@btMatrix3x3@@QAEXABM00000000@Z ENDP		; btMatrix3x3::setValue
; Function compile flags: /Odtp /RTCsu
_TEXT	ENDS
;	COMDAT ?setValue@btVector3@@QAEXABM00@Z
_TEXT	SEGMENT
_this$ = -4						; size = 4
__x$ = 8						; size = 4
__y$ = 12						; size = 4
__z$ = 16						; size = 4
?setValue@btVector3@@QAEXABM00@Z PROC			; btVector3::setValue, COMDAT
; _this$ = ecx
; File d:\專題\自建專案\自建專案\src\linearmath\btvector3.h
; Line 641
	push	ebp
	mov	ebp, esp
	push	ecx
	mov	DWORD PTR [ebp-4], -858993460		; ccccccccH
	mov	DWORD PTR _this$[ebp], ecx
; Line 642
	mov	eax, DWORD PTR _this$[ebp]
	mov	ecx, DWORD PTR __x$[ebp]
	fld	DWORD PTR [ecx]
	fstp	DWORD PTR [eax]
; Line 643
	mov	edx, DWORD PTR _this$[ebp]
	mov	eax, DWORD PTR __y$[ebp]
	fld	DWORD PTR [eax]
	fstp	DWORD PTR [edx+4]
; Line 644
	mov	ecx, DWORD PTR _this$[ebp]
	mov	edx, DWORD PTR __z$[ebp]
	fld	DWORD PTR [edx]
	fstp	DWORD PTR [ecx+8]
; Line 645
	mov	eax, DWORD PTR _this$[ebp]
	fldz
	fstp	DWORD PTR [eax+12]
; Line 646
	mov	esp, ebp
	pop	ebp
	ret	12					; 0000000cH
?setValue@btVector3@@QAEXABM00@Z ENDP			; btVector3::setValue
; Function compile flags: /Odtp /RTCsu
_TEXT	ENDS
;	COMDAT ?setIdentity@btTransform@@QAEXXZ
_TEXT	SEGMENT
$T65883 = -16						; size = 4
$T65882 = -12						; size = 4
$T65881 = -8						; size = 4
_this$ = -4						; size = 4
?setIdentity@btTransform@@QAEXXZ PROC			; btTransform::setIdentity, COMDAT
; _this$ = ecx
; File d:\專題\自建專案\自建專案\src\linearmath\bttransform.h
; Line 173
	push	ebp
	mov	ebp, esp
	sub	esp, 16					; 00000010H
	mov	eax, -858993460				; ccccccccH
	mov	DWORD PTR [ebp-16], eax
	mov	DWORD PTR [ebp-12], eax
	mov	DWORD PTR [ebp-8], eax
	mov	DWORD PTR [ebp-4], eax
	mov	DWORD PTR _this$[ebp], ecx
; Line 174
	mov	ecx, DWORD PTR _this$[ebp]
	call	?setIdentity@btMatrix3x3@@QAEXXZ	; btMatrix3x3::setIdentity
; Line 175
	fldz
	fstp	DWORD PTR $T65881[ebp]
	fldz
	fstp	DWORD PTR $T65882[ebp]
	fldz
	fstp	DWORD PTR $T65883[ebp]
	lea	eax, DWORD PTR $T65881[ebp]
	push	eax
	lea	ecx, DWORD PTR $T65882[ebp]
	push	ecx
	lea	edx, DWORD PTR $T65883[ebp]
	push	edx
	mov	ecx, DWORD PTR _this$[ebp]
	add	ecx, 48					; 00000030H
	call	?setValue@btVector3@@QAEXABM00@Z	; btVector3::setValue
; Line 176
	add	esp, 16					; 00000010H
	cmp	ebp, esp
	call	__RTC_CheckEsp
	mov	esp, ebp
	pop	ebp
	ret	0
?setIdentity@btTransform@@QAEXXZ ENDP			; btTransform::setIdentity
_TEXT	ENDS
EXTRN	?btAlignedAllocInternal@@YAPAXIH@Z:PROC		; btAlignedAllocInternal
; Function compile flags: /Odtp /RTCsu
;	COMDAT ??2btConcaveShape@@SAPAXI@Z
_TEXT	SEGMENT
_sizeInBytes$ = 8					; size = 4
??2btConcaveShape@@SAPAXI@Z PROC			; btConcaveShape::operator new, COMDAT
; File d:\專題\自建專案\自建專案\src\bulletcollision\collisionshapes\btconcaveshape.h
; Line 42
	push	ebp
	mov	ebp, esp
	push	16					; 00000010H
	mov	eax, DWORD PTR _sizeInBytes$[ebp]
	push	eax
	call	?btAlignedAllocInternal@@YAPAXIH@Z	; btAlignedAllocInternal
	add	esp, 8
	cmp	ebp, esp
	call	__RTC_CheckEsp
	pop	ebp
	ret	0
??2btConcaveShape@@SAPAXI@Z ENDP			; btConcaveShape::operator new
_TEXT	ENDS
PUBLIC	??_7btSoftBodyCollisionShape@@6B@		; btSoftBodyCollisionShape::`vftable'
PUBLIC	?getAabb@btSoftBodyCollisionShape@@UBEXABVbtTransform@@AAVbtVector3@@1@Z ; btSoftBodyCollisionShape::getAabb
PUBLIC	?setLocalScaling@btSoftBodyCollisionShape@@UAEXABVbtVector3@@@Z ; btSoftBodyCollisionShape::setLocalScaling
PUBLIC	?getLocalScaling@btSoftBodyCollisionShape@@UBEABVbtVector3@@XZ ; btSoftBodyCollisionShape::getLocalScaling
PUBLIC	?calculateLocalInertia@btSoftBodyCollisionShape@@UBEXMAAVbtVector3@@@Z ; btSoftBodyCollisionShape::calculateLocalInertia
PUBLIC	?getName@btSoftBodyCollisionShape@@UBEPBDXZ	; btSoftBodyCollisionShape::getName
PUBLIC	?getAnisotropicRollingFrictionDirection@btCollisionShape@@UBE?AVbtVector3@@XZ ; btCollisionShape::getAnisotropicRollingFrictionDirection
PUBLIC	?setMargin@btConcaveShape@@UAEXM@Z		; btConcaveShape::setMargin
PUBLIC	?getMargin@btConcaveShape@@UBEMXZ		; btConcaveShape::getMargin
PUBLIC	?calculateSerializeBufferSize@btCollisionShape@@UBEHXZ ; btCollisionShape::calculateSerializeBufferSize
PUBLIC	?processAllTriangles@btSoftBodyCollisionShape@@UBEXPAVbtTriangleCallback@@ABVbtVector3@@1@Z ; btSoftBodyCollisionShape::processAllTriangles
EXTRN	??0btConcaveShape@@QAE@XZ:PROC			; btConcaveShape::btConcaveShape
EXTRN	??_EbtSoftBodyCollisionShape@@UAEPAXI@Z:PROC	; btSoftBodyCollisionShape::`vector deleting destructor'
EXTRN	?getBoundingSphere@btCollisionShape@@UBEXAAVbtVector3@@AAM@Z:PROC ; btCollisionShape::getBoundingSphere
EXTRN	?getAngularMotionDisc@btCollisionShape@@UBEMXZ:PROC ; btCollisionShape::getAngularMotionDisc
EXTRN	?getContactBreakingThreshold@btCollisionShape@@UBEMM@Z:PROC ; btCollisionShape::getContactBreakingThreshold
EXTRN	?serialize@btCollisionShape@@UBEPBDPAXPAVbtSerializer@@@Z:PROC ; btCollisionShape::serialize
EXTRN	?serializeSingleShape@btCollisionShape@@UBEXPAVbtSerializer@@@Z:PROC ; btCollisionShape::serializeSingleShape
;	COMDAT ??_7btSoftBodyCollisionShape@@6B@
; File d:\專題\自建專案\自建專案\src\bulletsoftbody\btsoftbodyinternals.h
CONST	SEGMENT
??_7btSoftBodyCollisionShape@@6B@ DD FLAT:??_EbtSoftBodyCollisionShape@@UAEPAXI@Z ; btSoftBodyCollisionShape::`vftable'
	DD	FLAT:?getAabb@btSoftBodyCollisionShape@@UBEXABVbtTransform@@AAVbtVector3@@1@Z
	DD	FLAT:?getBoundingSphere@btCollisionShape@@UBEXAAVbtVector3@@AAM@Z
	DD	FLAT:?getAngularMotionDisc@btCollisionShape@@UBEMXZ
	DD	FLAT:?getContactBreakingThreshold@btCollisionShape@@UBEMM@Z
	DD	FLAT:?setLocalScaling@btSoftBodyCollisionShape@@UAEXABVbtVector3@@@Z
	DD	FLAT:?getLocalScaling@btSoftBodyCollisionShape@@UBEABVbtVector3@@XZ
	DD	FLAT:?calculateLocalInertia@btSoftBodyCollisionShape@@UBEXMAAVbtVector3@@@Z
	DD	FLAT:?getName@btSoftBodyCollisionShape@@UBEPBDXZ
	DD	FLAT:?getAnisotropicRollingFrictionDirection@btCollisionShape@@UBE?AVbtVector3@@XZ
	DD	FLAT:?setMargin@btConcaveShape@@UAEXM@Z
	DD	FLAT:?getMargin@btConcaveShape@@UBEMXZ
	DD	FLAT:?calculateSerializeBufferSize@btCollisionShape@@UBEHXZ
	DD	FLAT:?serialize@btCollisionShape@@UBEPBDPAXPAVbtSerializer@@@Z
	DD	FLAT:?serializeSingleShape@btCollisionShape@@UBEXPAVbtSerializer@@@Z
	DD	FLAT:?processAllTriangles@btSoftBodyCollisionShape@@UBEXPAVbtTriangleCallback@@ABVbtVector3@@1@Z
; Function compile flags: /Odtp /RTCsu
CONST	ENDS
;	COMDAT ??0btSoftBodyCollisionShape@@QAE@PAVbtSoftBody@@@Z
_TEXT	SEGMENT
_this$ = -4						; size = 4
_backptr$ = 8						; size = 4
??0btSoftBodyCollisionShape@@QAE@PAVbtSoftBody@@@Z PROC	; btSoftBodyCollisionShape::btSoftBodyCollisionShape, COMDAT
; _this$ = ecx
; Line 54
	push	ebp
	mov	ebp, esp
	push	ecx
	mov	DWORD PTR [ebp-4], -858993460		; ccccccccH
	mov	DWORD PTR _this$[ebp], ecx
	mov	ecx, DWORD PTR _this$[ebp]
	call	??0btConcaveShape@@QAE@XZ		; btConcaveShape::btConcaveShape
	mov	eax, DWORD PTR _this$[ebp]
	mov	DWORD PTR [eax], OFFSET ??_7btSoftBodyCollisionShape@@6B@
; Line 56
	mov	ecx, DWORD PTR _this$[ebp]
	mov	DWORD PTR [ecx+4], 32			; 00000020H
; Line 57
	mov	edx, DWORD PTR _this$[ebp]
	mov	eax, DWORD PTR _backptr$[ebp]
	mov	DWORD PTR [edx+16], eax
; Line 58
	mov	eax, DWORD PTR _this$[ebp]
	add	esp, 4
	cmp	ebp, esp
	call	__RTC_CheckEsp
	mov	esp, ebp
	pop	ebp
	ret	4
??0btSoftBodyCollisionShape@@QAE@PAVbtSoftBody@@@Z ENDP	; btSoftBodyCollisionShape::btSoftBodyCollisionShape
; Function compile flags: /Odtp /RTCsu
_TEXT	ENDS
;	COMDAT ?getAnisotropicRollingFrictionDirection@btCollisionShape@@UBE?AVbtVector3@@XZ
_TEXT	SEGMENT
$T65892 = -16						; size = 4
$T65891 = -12						; size = 4
$T65890 = -8						; size = 4
_this$ = -4						; size = 4
___$ReturnUdt$ = 8					; size = 4
?getAnisotropicRollingFrictionDirection@btCollisionShape@@UBE?AVbtVector3@@XZ PROC ; btCollisionShape::getAnisotropicRollingFrictionDirection, COMDAT
; _this$ = ecx
; File d:\專題\自建專案\自建專案\src\bulletcollision\collisionshapes\btcollisionshape.h
; Line 116
	push	ebp
	mov	ebp, esp
	sub	esp, 16					; 00000010H
	mov	eax, -858993460				; ccccccccH
	mov	DWORD PTR [ebp-16], eax
	mov	DWORD PTR [ebp-12], eax
	mov	DWORD PTR [ebp-8], eax
	mov	DWORD PTR [ebp-4], eax
	mov	DWORD PTR _this$[ebp], ecx
; Line 117
	fld1
	fstp	DWORD PTR $T65890[ebp]
	fld1
	fstp	DWORD PTR $T65891[ebp]
	fld1
	fstp	DWORD PTR $T65892[ebp]
	lea	eax, DWORD PTR $T65890[ebp]
	push	eax
	lea	ecx, DWORD PTR $T65891[ebp]
	push	ecx
	lea	edx, DWORD PTR $T65892[ebp]
	push	edx
	mov	ecx, DWORD PTR ___$ReturnUdt$[ebp]
	call	??0btVector3@@QAE@ABM00@Z		; btVector3::btVector3
	mov	eax, DWORD PTR ___$ReturnUdt$[ebp]
; Line 118
	add	esp, 16					; 00000010H
	cmp	ebp, esp
	call	__RTC_CheckEsp
	mov	esp, ebp
	pop	ebp
	ret	4
?getAnisotropicRollingFrictionDirection@btCollisionShape@@UBE?AVbtVector3@@XZ ENDP ; btCollisionShape::getAnisotropicRollingFrictionDirection
; Function compile flags: /Odtp /RTCsu
_TEXT	ENDS
;	COMDAT ?calculateSerializeBufferSize@btCollisionShape@@UBEHXZ
_TEXT	SEGMENT
_this$ = -4						; size = 4
?calculateSerializeBufferSize@btCollisionShape@@UBEHXZ PROC ; btCollisionShape::calculateSerializeBufferSize, COMDAT
; _this$ = ecx
; Line 152
	push	ebp
	mov	ebp, esp
	push	ecx
	mov	DWORD PTR [ebp-4], -858993460		; ccccccccH
	mov	DWORD PTR _this$[ebp], ecx
; Line 153
	mov	eax, 12					; 0000000cH
; Line 154
	mov	esp, ebp
	pop	ebp
	ret	0
?calculateSerializeBufferSize@btCollisionShape@@UBEHXZ ENDP ; btCollisionShape::calculateSerializeBufferSize
; Function compile flags: /Odtp /RTCsu
_TEXT	ENDS
;	COMDAT ?getMargin@btConcaveShape@@UBEMXZ
_TEXT	SEGMENT
_this$ = -4						; size = 4
?getMargin@btConcaveShape@@UBEMXZ PROC			; btConcaveShape::getMargin, COMDAT
; _this$ = ecx
; File d:\專題\自建專案\自建專案\src\bulletcollision\collisionshapes\btconcaveshape.h
; Line 50
	push	ebp
	mov	ebp, esp
	push	ecx
	mov	DWORD PTR [ebp-4], -858993460		; ccccccccH
	mov	DWORD PTR _this$[ebp], ecx
; Line 51
	mov	eax, DWORD PTR _this$[ebp]
	fld	DWORD PTR [eax+12]
; Line 52
	mov	esp, ebp
	pop	ebp
	ret	0
?getMargin@btConcaveShape@@UBEMXZ ENDP			; btConcaveShape::getMargin
; Function compile flags: /Odtp /RTCsu
_TEXT	ENDS
;	COMDAT ?setMargin@btConcaveShape@@UAEXM@Z
_TEXT	SEGMENT
_this$ = -4						; size = 4
_collisionMargin$ = 8					; size = 4
?setMargin@btConcaveShape@@UAEXM@Z PROC			; btConcaveShape::setMargin, COMDAT
; _this$ = ecx
; Line 54
	push	ebp
	mov	ebp, esp
	push	ecx
	mov	DWORD PTR [ebp-4], -858993460		; ccccccccH
	mov	DWORD PTR _this$[ebp], ecx
; Line 55
	mov	eax, DWORD PTR _this$[ebp]
	fld	DWORD PTR _collisionMargin$[ebp]
	fstp	DWORD PTR [eax+12]
; Line 56
	mov	esp, ebp
	pop	ebp
	ret	4
?setMargin@btConcaveShape@@UAEXM@Z ENDP			; btConcaveShape::setMargin
_TEXT	ENDS
PUBLIC	??_C@_0FC@CEKAADLI@Assert?5d?3?2?$LBM?CD?2?$KG?$NL?$KL?X?$LBM?$KO?W?2?$KG?$NL?$KL?X?$LBM?$KO?W@ ; `string'
EXTRN	_printf:PROC
;	COMDAT ??_C@_0FC@CEKAADLI@Assert?5d?3?2?$LBM?CD?2?$KG?$NL?$KL?X?$LBM?$KO?W?2?$KG?$NL?$KL?X?$LBM?$KO?W@
; File d:\專題\自建專案\自建專案\src\bulletsoftbody\btsoftbodyinternals.h
CONST	SEGMENT
??_C@_0FC@CEKAADLI@Assert?5d?3?2?$LBM?CD?2?$KG?$NL?$KL?X?$LBM?$KO?W?2?$KG?$NL?$KL?X?$LBM?$KO?W@ DB 'A'
	DB	'ssert d:\', 0b1H, 'M', 0c3H, 'D\', 0a6H, 0dbH, 0abH, 0d8H, 0b1H
	DB	'M', 0aeH, 0d7H, '\', 0a6H, 0dbH, 0abH, 0d8H, 0b1H, 'M', 0aeH, 0d7H
	DB	'\src\bulletsoftbody\btSoftBodyInternals.h:%u (0)', 0aH, 00H ; `string'
; Function compile flags: /Odtp /RTCsu
CONST	ENDS
;	COMDAT ?processAllTriangles@btSoftBodyCollisionShape@@UBEXPAVbtTriangleCallback@@ABVbtVector3@@1@Z
_TEXT	SEGMENT
_this$ = -4						; size = 4
___formal$ = 8						; size = 4
___formal$ = 12						; size = 4
___formal$ = 16						; size = 4
?processAllTriangles@btSoftBodyCollisionShape@@UBEXPAVbtTriangleCallback@@ABVbtVector3@@1@Z PROC ; btSoftBodyCollisionShape::processAllTriangles, COMDAT
; _this$ = ecx
; Line 66
	push	ebp
	mov	ebp, esp
	push	ecx
	mov	DWORD PTR [ebp-4], -858993460		; ccccccccH
	mov	DWORD PTR _this$[ebp], ecx
; Line 68
	mov	eax, 1
	test	eax, eax
	je	SHORT $LN2@processAll
	push	68					; 00000044H
	push	OFFSET ??_C@_0FC@CEKAADLI@Assert?5d?3?2?$LBM?CD?2?$KG?$NL?$KL?X?$LBM?$KO?W?2?$KG?$NL?$KL?X?$LBM?$KO?W@
	call	_printf
	add	esp, 8
	int	3
$LN2@processAll:
; Line 69
	add	esp, 4
	cmp	ebp, esp
	call	__RTC_CheckEsp
	mov	esp, ebp
	pop	ebp
	ret	12					; 0000000cH
?processAllTriangles@btSoftBodyCollisionShape@@UBEXPAVbtTriangleCallback@@ABVbtVector3@@1@Z ENDP ; btSoftBodyCollisionShape::processAllTriangles
_TEXT	ENDS
PUBLIC	?setMax@btVector3@@QAEXABV1@@Z			; btVector3::setMax
PUBLIC	?setMin@btVector3@@QAEXABV1@@Z			; btVector3::setMin
PUBLIC	??DbtTransform@@QBE?AVbtVector3@@ABV1@@Z	; btTransform::operator*
PUBLIC	?x@btVector3@@QBEABMXZ				; btVector3::x
PUBLIC	?y@btVector3@@QBEABMXZ				; btVector3::y
PUBLIC	?z@btVector3@@QBEABMXZ				; btVector3::z
PUBLIC	__$ArrayPad$
EXTRN	___security_cookie:DWORD
EXTRN	@__security_check_cookie@4:PROC
; Function compile flags: /Odtp /RTCsu
;	COMDAT ?getAabb@btSoftBodyCollisionShape@@UBEXABVbtTransform@@AAVbtVector3@@1@Z
_TEXT	SEGMENT
_i$19157 = -356						; size = 4
$T19155 = -352						; size = 16
$T19153 = -336						; size = 16
$T19151 = -320						; size = 16
$T19149 = -304						; size = 16
$T19147 = -288						; size = 16
$T19145 = -272						; size = 16
$T19143 = -256						; size = 16
$T19141 = -240						; size = 16
_crns$ = -208						; size = 128
_maxs$ = -64						; size = 16
_mins$ = -32						; size = 16
_this$ = -8						; size = 4
__$ArrayPad$ = -4					; size = 4
_t$ = 8							; size = 4
_aabbMin$ = 12						; size = 4
_aabbMax$ = 16						; size = 4
?getAabb@btSoftBodyCollisionShape@@UBEXABVbtTransform@@AAVbtVector3@@1@Z PROC ; btSoftBodyCollisionShape::getAabb, COMDAT
; _this$ = ecx
; Line 73
	push	ebx
	mov	ebx, esp
	sub	esp, 8
	and	esp, -16				; fffffff0H
	add	esp, 4
	push	ebp
	mov	ebp, DWORD PTR [ebx+4]
	mov	DWORD PTR [esp+4], ebp
	mov	ebp, esp
	sub	esp, 368				; 00000170H
	push	edi
	push	ecx
	lea	edi, DWORD PTR [ebp-368]
	mov	ecx, 92					; 0000005cH
	mov	eax, -858993460				; ccccccccH
	rep stosd
	pop	ecx
	mov	eax, DWORD PTR ___security_cookie
	xor	eax, ebp
	mov	DWORD PTR __$ArrayPad$[ebp], eax
	mov	DWORD PTR _this$[ebp], ecx
; Line 75
	mov	eax, DWORD PTR _this$[ebp]
	mov	ecx, DWORD PTR [eax+16]
	add	ecx, 928				; 000003a0H
	mov	edx, DWORD PTR [ecx]
	mov	DWORD PTR _mins$[ebp], edx
	mov	eax, DWORD PTR [ecx+4]
	mov	DWORD PTR _mins$[ebp+4], eax
	mov	edx, DWORD PTR [ecx+8]
	mov	DWORD PTR _mins$[ebp+8], edx
	mov	eax, DWORD PTR [ecx+12]
	mov	DWORD PTR _mins$[ebp+12], eax
; Line 76
	mov	ecx, DWORD PTR _this$[ebp]
	mov	edx, DWORD PTR [ecx+16]
	add	edx, 944				; 000003b0H
	mov	eax, DWORD PTR [edx]
	mov	DWORD PTR _maxs$[ebp], eax
	mov	ecx, DWORD PTR [edx+4]
	mov	DWORD PTR _maxs$[ebp+4], ecx
	mov	eax, DWORD PTR [edx+8]
	mov	DWORD PTR _maxs$[ebp+8], eax
	mov	ecx, DWORD PTR [edx+12]
	mov	DWORD PTR _maxs$[ebp+12], ecx
; Line 77
	lea	ecx, DWORD PTR _mins$[ebp]
	call	?z@btVector3@@QBEABMXZ			; btVector3::z
	push	eax
	lea	ecx, DWORD PTR _mins$[ebp]
	call	?y@btVector3@@QBEABMXZ			; btVector3::y
	push	eax
	lea	ecx, DWORD PTR _mins$[ebp]
	call	?x@btVector3@@QBEABMXZ			; btVector3::x
	push	eax
	lea	ecx, DWORD PTR $T19141[ebp]
	call	??0btVector3@@QAE@ABM00@Z		; btVector3::btVector3
	push	eax
	lea	edx, DWORD PTR _crns$[ebp]
	push	edx
	mov	ecx, DWORD PTR _t$[ebx]
	call	??DbtTransform@@QBE?AVbtVector3@@ABV1@@Z ; btTransform::operator*
; Line 78
	lea	ecx, DWORD PTR _mins$[ebp]
	call	?z@btVector3@@QBEABMXZ			; btVector3::z
	push	eax
	lea	ecx, DWORD PTR _mins$[ebp]
	call	?y@btVector3@@QBEABMXZ			; btVector3::y
	push	eax
	lea	ecx, DWORD PTR _maxs$[ebp]
	call	?x@btVector3@@QBEABMXZ			; btVector3::x
	push	eax
	lea	ecx, DWORD PTR $T19143[ebp]
	call	??0btVector3@@QAE@ABM00@Z		; btVector3::btVector3
	push	eax
	lea	eax, DWORD PTR _crns$[ebp+16]
	push	eax
	mov	ecx, DWORD PTR _t$[ebx]
	call	??DbtTransform@@QBE?AVbtVector3@@ABV1@@Z ; btTransform::operator*
; Line 79
	lea	ecx, DWORD PTR _mins$[ebp]
	call	?z@btVector3@@QBEABMXZ			; btVector3::z
	push	eax
	lea	ecx, DWORD PTR _maxs$[ebp]
	call	?y@btVector3@@QBEABMXZ			; btVector3::y
	push	eax
	lea	ecx, DWORD PTR _maxs$[ebp]
	call	?x@btVector3@@QBEABMXZ			; btVector3::x
	push	eax
	lea	ecx, DWORD PTR $T19145[ebp]
	call	??0btVector3@@QAE@ABM00@Z		; btVector3::btVector3
	push	eax
	lea	ecx, DWORD PTR _crns$[ebp+32]
	push	ecx
	mov	ecx, DWORD PTR _t$[ebx]
	call	??DbtTransform@@QBE?AVbtVector3@@ABV1@@Z ; btTransform::operator*
; Line 80
	lea	ecx, DWORD PTR _mins$[ebp]
	call	?z@btVector3@@QBEABMXZ			; btVector3::z
	push	eax
	lea	ecx, DWORD PTR _maxs$[ebp]
	call	?y@btVector3@@QBEABMXZ			; btVector3::y
	push	eax
	lea	ecx, DWORD PTR _mins$[ebp]
	call	?x@btVector3@@QBEABMXZ			; btVector3::x
	push	eax
	lea	ecx, DWORD PTR $T19147[ebp]
	call	??0btVector3@@QAE@ABM00@Z		; btVector3::btVector3
	push	eax
	lea	edx, DWORD PTR _crns$[ebp+48]
	push	edx
	mov	ecx, DWORD PTR _t$[ebx]
	call	??DbtTransform@@QBE?AVbtVector3@@ABV1@@Z ; btTransform::operator*
; Line 81
	lea	ecx, DWORD PTR _maxs$[ebp]
	call	?z@btVector3@@QBEABMXZ			; btVector3::z
	push	eax
	lea	ecx, DWORD PTR _mins$[ebp]
	call	?y@btVector3@@QBEABMXZ			; btVector3::y
	push	eax
	lea	ecx, DWORD PTR _mins$[ebp]
	call	?x@btVector3@@QBEABMXZ			; btVector3::x
	push	eax
	lea	ecx, DWORD PTR $T19149[ebp]
	call	??0btVector3@@QAE@ABM00@Z		; btVector3::btVector3
	push	eax
	lea	eax, DWORD PTR _crns$[ebp+64]
	push	eax
	mov	ecx, DWORD PTR _t$[ebx]
	call	??DbtTransform@@QBE?AVbtVector3@@ABV1@@Z ; btTransform::operator*
; Line 82
	lea	ecx, DWORD PTR _maxs$[ebp]
	call	?z@btVector3@@QBEABMXZ			; btVector3::z
	push	eax
	lea	ecx, DWORD PTR _mins$[ebp]
	call	?y@btVector3@@QBEABMXZ			; btVector3::y
	push	eax
	lea	ecx, DWORD PTR _maxs$[ebp]
	call	?x@btVector3@@QBEABMXZ			; btVector3::x
	push	eax
	lea	ecx, DWORD PTR $T19151[ebp]
	call	??0btVector3@@QAE@ABM00@Z		; btVector3::btVector3
	push	eax
	lea	ecx, DWORD PTR _crns$[ebp+80]
	push	ecx
	mov	ecx, DWORD PTR _t$[ebx]
	call	??DbtTransform@@QBE?AVbtVector3@@ABV1@@Z ; btTransform::operator*
; Line 83
	lea	ecx, DWORD PTR _maxs$[ebp]
	call	?z@btVector3@@QBEABMXZ			; btVector3::z
	push	eax
	lea	ecx, DWORD PTR _maxs$[ebp]
	call	?y@btVector3@@QBEABMXZ			; btVector3::y
	push	eax
	lea	ecx, DWORD PTR _maxs$[ebp]
	call	?x@btVector3@@QBEABMXZ			; btVector3::x
	push	eax
	lea	ecx, DWORD PTR $T19153[ebp]
	call	??0btVector3@@QAE@ABM00@Z		; btVector3::btVector3
	push	eax
	lea	edx, DWORD PTR _crns$[ebp+96]
	push	edx
	mov	ecx, DWORD PTR _t$[ebx]
	call	??DbtTransform@@QBE?AVbtVector3@@ABV1@@Z ; btTransform::operator*
; Line 84
	lea	ecx, DWORD PTR _maxs$[ebp]
	call	?z@btVector3@@QBEABMXZ			; btVector3::z
	push	eax
	lea	ecx, DWORD PTR _maxs$[ebp]
	call	?y@btVector3@@QBEABMXZ			; btVector3::y
	push	eax
	lea	ecx, DWORD PTR _mins$[ebp]
	call	?x@btVector3@@QBEABMXZ			; btVector3::x
	push	eax
	lea	ecx, DWORD PTR $T19155[ebp]
	call	??0btVector3@@QAE@ABM00@Z		; btVector3::btVector3
	push	eax
	lea	eax, DWORD PTR _crns$[ebp+112]
	push	eax
	mov	ecx, DWORD PTR _t$[ebx]
	call	??DbtTransform@@QBE?AVbtVector3@@ABV1@@Z ; btTransform::operator*
; Line 85
	mov	ecx, DWORD PTR _aabbMax$[ebx]
	mov	edx, DWORD PTR _crns$[ebp]
	mov	DWORD PTR [ecx], edx
	mov	eax, DWORD PTR _crns$[ebp+4]
	mov	DWORD PTR [ecx+4], eax
	mov	edx, DWORD PTR _crns$[ebp+8]
	mov	DWORD PTR [ecx+8], edx
	mov	eax, DWORD PTR _crns$[ebp+12]
	mov	DWORD PTR [ecx+12], eax
	mov	ecx, DWORD PTR _aabbMax$[ebx]
	mov	edx, DWORD PTR _aabbMin$[ebx]
	mov	eax, DWORD PTR [ecx]
	mov	DWORD PTR [edx], eax
	mov	eax, DWORD PTR [ecx+4]
	mov	DWORD PTR [edx+4], eax
	mov	eax, DWORD PTR [ecx+8]
	mov	DWORD PTR [edx+8], eax
	mov	ecx, DWORD PTR [ecx+12]
	mov	DWORD PTR [edx+12], ecx
; Line 86
	mov	DWORD PTR _i$19157[ebp], 1
	jmp	SHORT $LN3@getAabb
$LN2@getAabb:
	mov	edx, DWORD PTR _i$19157[ebp]
	add	edx, 1
	mov	DWORD PTR _i$19157[ebp], edx
$LN3@getAabb:
	cmp	DWORD PTR _i$19157[ebp], 8
	jge	SHORT $LN4@getAabb
; Line 88
	mov	eax, DWORD PTR _i$19157[ebp]
	shl	eax, 4
	lea	ecx, DWORD PTR _crns$[ebp+eax]
	push	ecx
	mov	ecx, DWORD PTR _aabbMin$[ebx]
	call	?setMin@btVector3@@QAEXABV1@@Z		; btVector3::setMin
; Line 89
	mov	edx, DWORD PTR _i$19157[ebp]
	shl	edx, 4
	lea	eax, DWORD PTR _crns$[ebp+edx]
	push	eax
	mov	ecx, DWORD PTR _aabbMax$[ebx]
	call	?setMax@btVector3@@QAEXABV1@@Z		; btVector3::setMax
; Line 90
	jmp	SHORT $LN2@getAabb
$LN4@getAabb:
; Line 91
	push	edx
	mov	ecx, ebp
	push	eax
	lea	edx, DWORD PTR $LN10@getAabb
	call	@_RTC_CheckStackVars@8
	pop	eax
	pop	edx
	pop	edi
	mov	ecx, DWORD PTR __$ArrayPad$[ebp]
	xor	ecx, ebp
	call	@__security_check_cookie@4
	mov	esp, ebp
	pop	ebp
	mov	esp, ebx
	pop	ebx
	ret	12					; 0000000cH
	npad	2
$LN10@getAabb:
	DD	3
	DD	$LN9@getAabb
$LN9@getAabb:
	DD	-32					; ffffffe0H
	DD	16					; 00000010H
	DD	$LN6@getAabb
	DD	-64					; ffffffc0H
	DD	16					; 00000010H
	DD	$LN7@getAabb
	DD	-208					; ffffff30H
	DD	128					; 00000080H
	DD	$LN8@getAabb
$LN8@getAabb:
	DB	99					; 00000063H
	DB	114					; 00000072H
	DB	110					; 0000006eH
	DB	115					; 00000073H
	DB	0
$LN7@getAabb:
	DB	109					; 0000006dH
	DB	97					; 00000061H
	DB	120					; 00000078H
	DB	115					; 00000073H
	DB	0
$LN6@getAabb:
	DB	109					; 0000006dH
	DB	105					; 00000069H
	DB	110					; 0000006eH
	DB	115					; 00000073H
	DB	0
?getAabb@btSoftBodyCollisionShape@@UBEXABVbtTransform@@AAVbtVector3@@1@Z ENDP ; btSoftBodyCollisionShape::getAabb
; Function compile flags: /Odtp /RTCsu
_TEXT	ENDS
;	COMDAT ?x@btVector3@@QBEABMXZ
_TEXT	SEGMENT
_this$ = -4						; size = 4
?x@btVector3@@QBEABMXZ PROC				; btVector3::x, COMDAT
; _this$ = ecx
; File d:\專題\自建專案\自建專案\src\linearmath\btvector3.h
; Line 575
	push	ebp
	mov	ebp, esp
	push	ecx
	mov	DWORD PTR [ebp-4], -858993460		; ccccccccH
	mov	DWORD PTR _this$[ebp], ecx
	mov	eax, DWORD PTR _this$[ebp]
	mov	esp, ebp
	pop	ebp
	ret	0
?x@btVector3@@QBEABMXZ ENDP				; btVector3::x
; Function compile flags: /Odtp /RTCsu
_TEXT	ENDS
;	COMDAT ?y@btVector3@@QBEABMXZ
_TEXT	SEGMENT
_this$ = -4						; size = 4
?y@btVector3@@QBEABMXZ PROC				; btVector3::y, COMDAT
; _this$ = ecx
; Line 577
	push	ebp
	mov	ebp, esp
	push	ecx
	mov	DWORD PTR [ebp-4], -858993460		; ccccccccH
	mov	DWORD PTR _this$[ebp], ecx
	mov	eax, DWORD PTR _this$[ebp]
	add	eax, 4
	mov	esp, ebp
	pop	ebp
	ret	0
?y@btVector3@@QBEABMXZ ENDP				; btVector3::y
; Function compile flags: /Odtp /RTCsu
_TEXT	ENDS
;	COMDAT ?z@btVector3@@QBEABMXZ
_TEXT	SEGMENT
_this$ = -4						; size = 4
?z@btVector3@@QBEABMXZ PROC				; btVector3::z, COMDAT
; _this$ = ecx
; Line 579
	push	ebp
	mov	ebp, esp
	push	ecx
	mov	DWORD PTR [ebp-4], -858993460		; ccccccccH
	mov	DWORD PTR _this$[ebp], ecx
	mov	eax, DWORD PTR _this$[ebp]
	add	eax, 8
	mov	esp, ebp
	pop	ebp
	ret	0
?z@btVector3@@QBEABMXZ ENDP				; btVector3::z
_TEXT	ENDS
PUBLIC	?w@btVector3@@QBEABMXZ				; btVector3::w
PUBLIC	??$btSetMax@M@@YAXAAMABM@Z			; btSetMax<float>
; Function compile flags: /Odtp /RTCsu
;	COMDAT ?setMax@btVector3@@QAEXABV1@@Z
_TEXT	SEGMENT
_this$ = -4						; size = 4
_other$ = 8						; size = 4
?setMax@btVector3@@QAEXABV1@@Z PROC			; btVector3::setMax, COMDAT
; _this$ = ecx
; Line 610
	push	ebp
	mov	ebp, esp
	push	ecx
	mov	DWORD PTR [ebp-4], -858993460		; ccccccccH
	mov	DWORD PTR _this$[ebp], ecx
; Line 616
	mov	eax, DWORD PTR _other$[ebp]
	push	eax
	mov	ecx, DWORD PTR _this$[ebp]
	push	ecx
	call	??$btSetMax@M@@YAXAAMABM@Z		; btSetMax<float>
	add	esp, 8
; Line 617
	mov	edx, DWORD PTR _other$[ebp]
	add	edx, 4
	push	edx
	mov	eax, DWORD PTR _this$[ebp]
	add	eax, 4
	push	eax
	call	??$btSetMax@M@@YAXAAMABM@Z		; btSetMax<float>
	add	esp, 8
; Line 618
	mov	ecx, DWORD PTR _other$[ebp]
	add	ecx, 8
	push	ecx
	mov	edx, DWORD PTR _this$[ebp]
	add	edx, 8
	push	edx
	call	??$btSetMax@M@@YAXAAMABM@Z		; btSetMax<float>
	add	esp, 8
; Line 619
	mov	ecx, DWORD PTR _other$[ebp]
	call	?w@btVector3@@QBEABMXZ			; btVector3::w
	push	eax
	mov	eax, DWORD PTR _this$[ebp]
	add	eax, 12					; 0000000cH
	push	eax
	call	??$btSetMax@M@@YAXAAMABM@Z		; btSetMax<float>
	add	esp, 8
; Line 621
	add	esp, 4
	cmp	ebp, esp
	call	__RTC_CheckEsp
	mov	esp, ebp
	pop	ebp
	ret	4
?setMax@btVector3@@QAEXABV1@@Z ENDP			; btVector3::setMax
; Function compile flags: /Odtp /RTCsu
_TEXT	ENDS
;	COMDAT ?w@btVector3@@QBEABMXZ
_TEXT	SEGMENT
_this$ = -4						; size = 4
?w@btVector3@@QBEABMXZ PROC				; btVector3::w, COMDAT
; _this$ = ecx
; Line 581
	push	ebp
	mov	ebp, esp
	push	ecx
	mov	DWORD PTR [ebp-4], -858993460		; ccccccccH
	mov	DWORD PTR _this$[ebp], ecx
	mov	eax, DWORD PTR _this$[ebp]
	add	eax, 12					; 0000000cH
	mov	esp, ebp
	pop	ebp
	ret	0
?w@btVector3@@QBEABMXZ ENDP				; btVector3::w
_TEXT	ENDS
PUBLIC	??$btSetMin@M@@YAXAAMABM@Z			; btSetMin<float>
; Function compile flags: /Odtp /RTCsu
;	COMDAT ?setMin@btVector3@@QAEXABV1@@Z
_TEXT	SEGMENT
_this$ = -4						; size = 4
_other$ = 8						; size = 4
?setMin@btVector3@@QAEXABV1@@Z PROC			; btVector3::setMin, COMDAT
; _this$ = ecx
; Line 627
	push	ebp
	mov	ebp, esp
	push	ecx
	mov	DWORD PTR [ebp-4], -858993460		; ccccccccH
	mov	DWORD PTR _this$[ebp], ecx
; Line 633
	mov	eax, DWORD PTR _other$[ebp]
	push	eax
	mov	ecx, DWORD PTR _this$[ebp]
	push	ecx
	call	??$btSetMin@M@@YAXAAMABM@Z		; btSetMin<float>
	add	esp, 8
; Line 634
	mov	edx, DWORD PTR _other$[ebp]
	add	edx, 4
	push	edx
	mov	eax, DWORD PTR _this$[ebp]
	add	eax, 4
	push	eax
	call	??$btSetMin@M@@YAXAAMABM@Z		; btSetMin<float>
	add	esp, 8
; Line 635
	mov	ecx, DWORD PTR _other$[ebp]
	add	ecx, 8
	push	ecx
	mov	edx, DWORD PTR _this$[ebp]
	add	edx, 8
	push	edx
	call	??$btSetMin@M@@YAXAAMABM@Z		; btSetMin<float>
	add	esp, 8
; Line 636
	mov	ecx, DWORD PTR _other$[ebp]
	call	?w@btVector3@@QBEABMXZ			; btVector3::w
	push	eax
	mov	eax, DWORD PTR _this$[ebp]
	add	eax, 12					; 0000000cH
	push	eax
	call	??$btSetMin@M@@YAXAAMABM@Z		; btSetMin<float>
	add	esp, 8
; Line 638
	add	esp, 4
	cmp	ebp, esp
	call	__RTC_CheckEsp
	mov	esp, ebp
	pop	ebp
	ret	4
?setMin@btVector3@@QAEXABV1@@Z ENDP			; btVector3::setMin
_TEXT	ENDS
PUBLIC	??RbtTransform@@QBE?AVbtVector3@@ABV1@@Z	; btTransform::operator()
; Function compile flags: /Odtp /RTCsu
;	COMDAT ??DbtTransform@@QBE?AVbtVector3@@ABV1@@Z
_TEXT	SEGMENT
_this$ = -4						; size = 4
___$ReturnUdt$ = 8					; size = 4
_x$ = 12						; size = 4
??DbtTransform@@QBE?AVbtVector3@@ABV1@@Z PROC		; btTransform::operator*, COMDAT
; _this$ = ecx
; File d:\專題\自建專案\自建專案\src\linearmath\bttransform.h
; Line 101
	push	ebp
	mov	ebp, esp
	push	ecx
	mov	DWORD PTR [ebp-4], -858993460		; ccccccccH
	mov	DWORD PTR _this$[ebp], ecx
; Line 102
	mov	eax, DWORD PTR _x$[ebp]
	push	eax
	mov	ecx, DWORD PTR ___$ReturnUdt$[ebp]
	push	ecx
	mov	ecx, DWORD PTR _this$[ebp]
	call	??RbtTransform@@QBE?AVbtVector3@@ABV1@@Z ; btTransform::operator()
	mov	eax, DWORD PTR ___$ReturnUdt$[ebp]
; Line 103
	add	esp, 4
	cmp	ebp, esp
	call	__RTC_CheckEsp
	mov	esp, ebp
	pop	ebp
	ret	8
??DbtTransform@@QBE?AVbtVector3@@ABV1@@Z ENDP		; btTransform::operator*
_TEXT	ENDS
PUBLIC	?dot3@btVector3@@QBE?AV1@ABV1@00@Z		; btVector3::dot3
PUBLIC	??AbtMatrix3x3@@QBEABVbtVector3@@H@Z		; btMatrix3x3::operator[]
; Function compile flags: /Odtp /RTCsu
;	COMDAT ??RbtTransform@@QBE?AVbtVector3@@ABV1@@Z
_TEXT	SEGMENT
$T9423 = -32						; size = 16
_this$ = -4						; size = 4
___$ReturnUdt$ = 8					; size = 4
_x$ = 12						; size = 4
??RbtTransform@@QBE?AVbtVector3@@ABV1@@Z PROC		; btTransform::operator(), COMDAT
; _this$ = ecx
; Line 95
	push	ebx
	mov	ebx, esp
	sub	esp, 8
	and	esp, -16				; fffffff0H
	add	esp, 4
	push	ebp
	mov	ebp, DWORD PTR [ebx+4]
	mov	DWORD PTR [esp+4], ebp
	mov	ebp, esp
	sub	esp, 32					; 00000020H
	mov	eax, -858993460				; ccccccccH
	mov	DWORD PTR [ebp-32], eax
	mov	DWORD PTR [ebp-28], eax
	mov	DWORD PTR [ebp-24], eax
	mov	DWORD PTR [ebp-20], eax
	mov	DWORD PTR [ebp-16], eax
	mov	DWORD PTR [ebp-12], eax
	mov	DWORD PTR [ebp-8], eax
	mov	DWORD PTR [ebp-4], eax
	mov	DWORD PTR _this$[ebp], ecx
; Line 96
	mov	eax, DWORD PTR _this$[ebp]
	add	eax, 48					; 00000030H
	push	eax
	push	2
	mov	ecx, DWORD PTR _this$[ebp]
	call	??AbtMatrix3x3@@QBEABVbtVector3@@H@Z	; btMatrix3x3::operator[]
	push	eax
	push	1
	mov	ecx, DWORD PTR _this$[ebp]
	call	??AbtMatrix3x3@@QBEABVbtVector3@@H@Z	; btMatrix3x3::operator[]
	push	eax
	push	0
	mov	ecx, DWORD PTR _this$[ebp]
	call	??AbtMatrix3x3@@QBEABVbtVector3@@H@Z	; btMatrix3x3::operator[]
	push	eax
	lea	ecx, DWORD PTR $T9423[ebp]
	push	ecx
	mov	ecx, DWORD PTR _x$[ebx]
	call	?dot3@btVector3@@QBE?AV1@ABV1@00@Z	; btVector3::dot3
	push	eax
	mov	edx, DWORD PTR ___$ReturnUdt$[ebx]
	push	edx
	call	??H@YA?AVbtVector3@@ABV0@0@Z		; operator+
	add	esp, 12					; 0000000cH
	mov	eax, DWORD PTR ___$ReturnUdt$[ebx]
; Line 97
	mov	esp, ebp
	pop	ebp
	mov	esp, ebx
	pop	ebx
	ret	8
??RbtTransform@@QBE?AVbtVector3@@ABV1@@Z ENDP		; btTransform::operator()
; Function compile flags: /Odtp /RTCsu
_TEXT	ENDS
;	COMDAT ?dot3@btVector3@@QBE?AV1@ABV1@00@Z
_TEXT	SEGMENT
$T65931 = -16						; size = 4
$T65930 = -12						; size = 4
$T65929 = -8						; size = 4
_this$ = -4						; size = 4
___$ReturnUdt$ = 8					; size = 4
_v0$ = 12						; size = 4
_v1$ = 16						; size = 4
_v2$ = 20						; size = 4
?dot3@btVector3@@QBE?AV1@ABV1@00@Z PROC			; btVector3::dot3, COMDAT
; _this$ = ecx
; File d:\專題\自建專案\自建專案\src\linearmath\btvector3.h
; Line 719
	push	ebp
	mov	ebp, esp
	sub	esp, 16					; 00000010H
	mov	eax, -858993460				; ccccccccH
	mov	DWORD PTR [ebp-16], eax
	mov	DWORD PTR [ebp-12], eax
	mov	DWORD PTR [ebp-8], eax
	mov	DWORD PTR [ebp-4], eax
	mov	DWORD PTR _this$[ebp], ecx
; Line 745
	mov	eax, DWORD PTR _v2$[ebp]
	push	eax
	mov	ecx, DWORD PTR _this$[ebp]
	call	?dot@btVector3@@QBEMABV1@@Z		; btVector3::dot
	fstp	DWORD PTR $T65929[ebp]
	mov	ecx, DWORD PTR _v1$[ebp]
	push	ecx
	mov	ecx, DWORD PTR _this$[ebp]
	call	?dot@btVector3@@QBEMABV1@@Z		; btVector3::dot
	fstp	DWORD PTR $T65930[ebp]
	mov	edx, DWORD PTR _v0$[ebp]
	push	edx
	mov	ecx, DWORD PTR _this$[ebp]
	call	?dot@btVector3@@QBEMABV1@@Z		; btVector3::dot
	fstp	DWORD PTR $T65931[ebp]
	lea	eax, DWORD PTR $T65929[ebp]
	push	eax
	lea	ecx, DWORD PTR $T65930[ebp]
	push	ecx
	lea	edx, DWORD PTR $T65931[ebp]
	push	edx
	mov	ecx, DWORD PTR ___$ReturnUdt$[ebp]
	call	??0btVector3@@QAE@ABM00@Z		; btVector3::btVector3
	mov	eax, DWORD PTR ___$ReturnUdt$[ebp]
; Line 747
	add	esp, 16					; 00000010H
	cmp	ebp, esp
	call	__RTC_CheckEsp
	mov	esp, ebp
	pop	ebp
	ret	16					; 00000010H
?dot3@btVector3@@QBE?AV1@ABV1@00@Z ENDP			; btVector3::dot3
; Function compile flags: /Odtp /RTCsu
_TEXT	ENDS
;	COMDAT ??AbtMatrix3x3@@QBEABVbtVector3@@H@Z
_TEXT	SEGMENT
_this$ = -4						; size = 4
_i$ = 8							; size = 4
??AbtMatrix3x3@@QBEABVbtVector3@@H@Z PROC		; btMatrix3x3::operator[], COMDAT
; _this$ = ecx
; File d:\專題\自建專案\自建專案\src\linearmath\btmatrix3x3.h
; Line 159
	push	ebp
	mov	ebp, esp
	push	ecx
	mov	DWORD PTR [ebp-4], -858993460		; ccccccccH
	mov	DWORD PTR _this$[ebp], ecx
; Line 161
	mov	eax, DWORD PTR _i$[ebp]
	shl	eax, 4
	add	eax, DWORD PTR _this$[ebp]
; Line 162
	mov	esp, ebp
	pop	ebp
	ret	4
??AbtMatrix3x3@@QBEABVbtVector3@@H@Z ENDP		; btMatrix3x3::operator[]
; Function compile flags: /Odtp /RTCsu
_TEXT	ENDS
;	COMDAT ?setLocalScaling@btSoftBodyCollisionShape@@UAEXABVbtVector3@@@Z
_TEXT	SEGMENT
_this$ = -4						; size = 4
___formal$ = 8						; size = 4
?setLocalScaling@btSoftBodyCollisionShape@@UAEXABVbtVector3@@@Z PROC ; btSoftBodyCollisionShape::setLocalScaling, COMDAT
; _this$ = ecx
; File d:\專題\自建專案\自建專案\src\bulletsoftbody\btsoftbodyinternals.h
; Line 95
	push	ebp
	mov	ebp, esp
	push	ecx
	mov	DWORD PTR [ebp-4], -858993460		; ccccccccH
	mov	DWORD PTR _this$[ebp], ecx
; Line 97
	mov	esp, ebp
	pop	ebp
	ret	4
?setLocalScaling@btSoftBodyCollisionShape@@UAEXABVbtVector3@@@Z ENDP ; btSoftBodyCollisionShape::setLocalScaling
_TEXT	ENDS
PUBLIC	?dummy@?1??getLocalScaling@btSoftBodyCollisionShape@@UBEABVbtVector3@@XZ@4V3@B ; `btSoftBodyCollisionShape::getLocalScaling'::`2'::dummy
PUBLIC	??_B?1??getLocalScaling@btSoftBodyCollisionShape@@UBEABVbtVector3@@XZ@51 ; `btSoftBodyCollisionShape::getLocalScaling'::`2'::`local static guard'
;	COMDAT ?dummy@?1??getLocalScaling@btSoftBodyCollisionShape@@UBEABVbtVector3@@XZ@4V3@B
_BSS	SEGMENT
?dummy@?1??getLocalScaling@btSoftBodyCollisionShape@@UBEABVbtVector3@@XZ@4V3@B DB 010H DUP (?) ; `btSoftBodyCollisionShape::getLocalScaling'::`2'::dummy
_BSS	ENDS
;	COMDAT ??_B?1??getLocalScaling@btSoftBodyCollisionShape@@UBEABVbtVector3@@XZ@51
_BSS	SEGMENT
??_B?1??getLocalScaling@btSoftBodyCollisionShape@@UBEABVbtVector3@@XZ@51 DD 01H DUP (?) ; `btSoftBodyCollisionShape::getLocalScaling'::`2'::`local static guard'
; Function compile flags: /Odtp /RTCsu
_BSS	ENDS
;	COMDAT ?getLocalScaling@btSoftBodyCollisionShape@@UBEABVbtVector3@@XZ
_TEXT	SEGMENT
$T65940 = -16						; size = 4
$T65939 = -12						; size = 4
$T65938 = -8						; size = 4
_this$ = -4						; size = 4
?getLocalScaling@btSoftBodyCollisionShape@@UBEABVbtVector3@@XZ PROC ; btSoftBodyCollisionShape::getLocalScaling, COMDAT
; _this$ = ecx
; Line 99
	push	ebp
	mov	ebp, esp
	sub	esp, 16					; 00000010H
	mov	eax, -858993460				; ccccccccH
	mov	DWORD PTR [ebp-16], eax
	mov	DWORD PTR [ebp-12], eax
	mov	DWORD PTR [ebp-8], eax
	mov	DWORD PTR [ebp-4], eax
	mov	DWORD PTR _this$[ebp], ecx
; Line 100
	mov	eax, DWORD PTR ??_B?1??getLocalScaling@btSoftBodyCollisionShape@@UBEABVbtVector3@@XZ@51
	and	eax, 1
	jne	SHORT $LN1@getLocalSc
	mov	ecx, DWORD PTR ??_B?1??getLocalScaling@btSoftBodyCollisionShape@@UBEABVbtVector3@@XZ@51
	or	ecx, 1
	mov	DWORD PTR ??_B?1??getLocalScaling@btSoftBodyCollisionShape@@UBEABVbtVector3@@XZ@51, ecx
	fld1
	fstp	DWORD PTR $T65938[ebp]
	fld1
	fstp	DWORD PTR $T65939[ebp]
	fld1
	fstp	DWORD PTR $T65940[ebp]
	lea	edx, DWORD PTR $T65938[ebp]
	push	edx
	lea	eax, DWORD PTR $T65939[ebp]
	push	eax
	lea	ecx, DWORD PTR $T65940[ebp]
	push	ecx
	mov	ecx, OFFSET ?dummy@?1??getLocalScaling@btSoftBodyCollisionShape@@UBEABVbtVector3@@XZ@4V3@B ; `btSoftBodyCollisionShape::getLocalScaling'::`2'::dummy
	call	??0btVector3@@QAE@ABM00@Z		; btVector3::btVector3
$LN1@getLocalSc:
; Line 101
	mov	eax, OFFSET ?dummy@?1??getLocalScaling@btSoftBodyCollisionShape@@UBEABVbtVector3@@XZ@4V3@B ; `btSoftBodyCollisionShape::getLocalScaling'::`2'::dummy
; Line 102
	add	esp, 16					; 00000010H
	cmp	ebp, esp
	call	__RTC_CheckEsp
	mov	esp, ebp
	pop	ebp
	ret	0
?getLocalScaling@btSoftBodyCollisionShape@@UBEABVbtVector3@@XZ ENDP ; btSoftBodyCollisionShape::getLocalScaling
; Function compile flags: /Odtp /RTCsu
_TEXT	ENDS
;	COMDAT ?calculateLocalInertia@btSoftBodyCollisionShape@@UBEXMAAVbtVector3@@@Z
_TEXT	SEGMENT
_this$ = -4						; size = 4
___formal$ = 8						; size = 4
___formal$ = 12						; size = 4
?calculateLocalInertia@btSoftBodyCollisionShape@@UBEXMAAVbtVector3@@@Z PROC ; btSoftBodyCollisionShape::calculateLocalInertia, COMDAT
; _this$ = ecx
; Line 104
	push	ebp
	mov	ebp, esp
	push	ecx
	mov	DWORD PTR [ebp-4], -858993460		; ccccccccH
	mov	DWORD PTR _this$[ebp], ecx
; Line 106
	mov	eax, 1
	test	eax, eax
	je	SHORT $LN2@calculateL
	push	106					; 0000006aH
	push	OFFSET ??_C@_0FC@CEKAADLI@Assert?5d?3?2?$LBM?CD?2?$KG?$NL?$KL?X?$LBM?$KO?W?2?$KG?$NL?$KL?X?$LBM?$KO?W@
	call	_printf
	add	esp, 8
	int	3
$LN2@calculateL:
; Line 107
	add	esp, 4
	cmp	ebp, esp
	call	__RTC_CheckEsp
	mov	esp, ebp
	pop	ebp
	ret	8
?calculateLocalInertia@btSoftBodyCollisionShape@@UBEXMAAVbtVector3@@@Z ENDP ; btSoftBodyCollisionShape::calculateLocalInertia
_TEXT	ENDS
PUBLIC	??_C@_08NDGCFPMC@SoftBody?$AA@			; `string'
;	COMDAT ??_C@_08NDGCFPMC@SoftBody?$AA@
CONST	SEGMENT
??_C@_08NDGCFPMC@SoftBody?$AA@ DB 'SoftBody', 00H	; `string'
; Function compile flags: /Odtp /RTCsu
CONST	ENDS
;	COMDAT ?getName@btSoftBodyCollisionShape@@UBEPBDXZ
_TEXT	SEGMENT
_this$ = -4						; size = 4
?getName@btSoftBodyCollisionShape@@UBEPBDXZ PROC	; btSoftBodyCollisionShape::getName, COMDAT
; _this$ = ecx
; Line 109
	push	ebp
	mov	ebp, esp
	push	ecx
	mov	DWORD PTR [ebp-4], -858993460		; ccccccccH
	mov	DWORD PTR _this$[ebp], ecx
; Line 110
	mov	eax, OFFSET ??_C@_08NDGCFPMC@SoftBody?$AA@
; Line 111
	mov	esp, ebp
	pop	ebp
	ret	0
?getName@btSoftBodyCollisionShape@@UBEPBDXZ ENDP	; btSoftBodyCollisionShape::getName
_TEXT	ENDS
PUBLIC	??3btConcaveShape@@SAXPAX@Z			; btConcaveShape::operator delete
PUBLIC	??1btSoftBodyCollisionShape@@UAE@XZ		; btSoftBodyCollisionShape::~btSoftBodyCollisionShape
; Function compile flags: /Odtp /RTCsu
;	COMDAT ??_GbtSoftBodyCollisionShape@@UAEPAXI@Z
_TEXT	SEGMENT
_this$ = -4						; size = 4
___flags$ = 8						; size = 4
??_GbtSoftBodyCollisionShape@@UAEPAXI@Z PROC		; btSoftBodyCollisionShape::`scalar deleting destructor', COMDAT
; _this$ = ecx
	push	ebp
	mov	ebp, esp
	push	ecx
	mov	DWORD PTR [ebp-4], -858993460		; ccccccccH
	mov	DWORD PTR _this$[ebp], ecx
	mov	ecx, DWORD PTR _this$[ebp]
	call	??1btSoftBodyCollisionShape@@UAE@XZ	; btSoftBodyCollisionShape::~btSoftBodyCollisionShape
	mov	eax, DWORD PTR ___flags$[ebp]
	and	eax, 1
	je	SHORT $LN1@scalar@2
	mov	ecx, DWORD PTR _this$[ebp]
	push	ecx
	call	??3btConcaveShape@@SAXPAX@Z		; btConcaveShape::operator delete
	add	esp, 4
$LN1@scalar@2:
	mov	eax, DWORD PTR _this$[ebp]
	add	esp, 4
	cmp	ebp, esp
	call	__RTC_CheckEsp
	mov	esp, ebp
	pop	ebp
	ret	4
??_GbtSoftBodyCollisionShape@@UAEPAXI@Z ENDP		; btSoftBodyCollisionShape::`scalar deleting destructor'
; Function compile flags: /Odtp /RTCsu
_TEXT	ENDS
;	COMDAT ??3btConcaveShape@@SAXPAX@Z
_TEXT	SEGMENT
_ptr$ = 8						; size = 4
??3btConcaveShape@@SAXPAX@Z PROC			; btConcaveShape::operator delete, COMDAT
; File d:\專題\自建專案\自建專案\src\bulletcollision\collisionshapes\btconcaveshape.h
; Line 42
	push	ebp
	mov	ebp, esp
	mov	eax, DWORD PTR _ptr$[ebp]
	push	eax
	call	?btAlignedFreeInternal@@YAXPAX@Z	; btAlignedFreeInternal
	add	esp, 4
	cmp	ebp, esp
	call	__RTC_CheckEsp
	pop	ebp
	ret	0
??3btConcaveShape@@SAXPAX@Z ENDP			; btConcaveShape::operator delete
_TEXT	ENDS
EXTRN	??1btConcaveShape@@UAE@XZ:PROC			; btConcaveShape::~btConcaveShape
; Function compile flags: /Odtp /RTCsu
;	COMDAT ??1btSoftBodyCollisionShape@@UAE@XZ
_TEXT	SEGMENT
_this$ = -4						; size = 4
??1btSoftBodyCollisionShape@@UAE@XZ PROC		; btSoftBodyCollisionShape::~btSoftBodyCollisionShape, COMDAT
; _this$ = ecx
; File d:\專題\自建專案\自建專案\src\bulletsoftbody\btsoftbodyinternals.h
; Line 61
	push	ebp
	mov	ebp, esp
	push	ecx
	mov	DWORD PTR [ebp-4], -858993460		; ccccccccH
	mov	DWORD PTR _this$[ebp], ecx
	mov	eax, DWORD PTR _this$[ebp]
	mov	DWORD PTR [eax], OFFSET ??_7btSoftBodyCollisionShape@@6B@
; Line 63
	mov	ecx, DWORD PTR _this$[ebp]
	call	??1btConcaveShape@@UAE@XZ		; btConcaveShape::~btConcaveShape
	add	esp, 4
	cmp	ebp, esp
	call	__RTC_CheckEsp
	mov	esp, ebp
	pop	ebp
	ret	0
??1btSoftBodyCollisionShape@@UAE@XZ ENDP		; btSoftBodyCollisionShape::~btSoftBodyCollisionShape
_TEXT	ENDS
PUBLIC	??1?$btAlignedObjectArray@PBVbtCollisionObject@@@@QAE@XZ ; btAlignedObjectArray<btCollisionObject const *>::~btAlignedObjectArray<btCollisionObject const *>
PUBLIC	??1Config@btSoftBody@@QAE@XZ			; btSoftBody::Config::~Config
PUBLIC	??1Pose@btSoftBody@@QAE@XZ			; btSoftBody::Pose::~Pose
PUBLIC	??1?$btAlignedObjectArray@UNote@btSoftBody@@@@QAE@XZ ; btAlignedObjectArray<btSoftBody::Note>::~btAlignedObjectArray<btSoftBody::Note>
PUBLIC	??1?$btAlignedObjectArray@UNode@btSoftBody@@@@QAE@XZ ; btAlignedObjectArray<btSoftBody::Node>::~btAlignedObjectArray<btSoftBody::Node>
PUBLIC	??1?$btAlignedObjectArray@ULink@btSoftBody@@@@QAE@XZ ; btAlignedObjectArray<btSoftBody::Link>::~btAlignedObjectArray<btSoftBody::Link>
PUBLIC	??1?$btAlignedObjectArray@UFace@btSoftBody@@@@QAE@XZ ; btAlignedObjectArray<btSoftBody::Face>::~btAlignedObjectArray<btSoftBody::Face>
PUBLIC	??1?$btAlignedObjectArray@UTetra@btSoftBody@@@@QAE@XZ ; btAlignedObjectArray<btSoftBody::Tetra>::~btAlignedObjectArray<btSoftBody::Tetra>
PUBLIC	??1?$btAlignedObjectArray@UAnchor@btSoftBody@@@@QAE@XZ ; btAlignedObjectArray<btSoftBody::Anchor>::~btAlignedObjectArray<btSoftBody::Anchor>
PUBLIC	??1?$btAlignedObjectArray@URContact@btSoftBody@@@@QAE@XZ ; btAlignedObjectArray<btSoftBody::RContact>::~btAlignedObjectArray<btSoftBody::RContact>
PUBLIC	??1?$btAlignedObjectArray@USContact@btSoftBody@@@@QAE@XZ ; btAlignedObjectArray<btSoftBody::SContact>::~btAlignedObjectArray<btSoftBody::SContact>
PUBLIC	??1?$btAlignedObjectArray@PAUJoint@btSoftBody@@@@QAE@XZ ; btAlignedObjectArray<btSoftBody::Joint *>::~btAlignedObjectArray<btSoftBody::Joint *>
PUBLIC	??1?$btAlignedObjectArray@PAUMaterial@btSoftBody@@@@QAE@XZ ; btAlignedObjectArray<btSoftBody::Material *>::~btAlignedObjectArray<btSoftBody::Material *>
PUBLIC	??1?$btAlignedObjectArray@PAUCluster@btSoftBody@@@@QAE@XZ ; btAlignedObjectArray<btSoftBody::Cluster *>::~btAlignedObjectArray<btSoftBody::Cluster *>
PUBLIC	??1?$btAlignedObjectArray@_N@@QAE@XZ		; btAlignedObjectArray<bool>::~btAlignedObjectArray<bool>
PUBLIC	??1?$btAlignedObjectArray@H@@QAE@XZ		; btAlignedObjectArray<int>::~btAlignedObjectArray<int>
PUBLIC	??A?$btAlignedObjectArray@PAUJoint@btSoftBody@@@@QAEAAPAUJoint@btSoftBody@@H@Z ; btAlignedObjectArray<btSoftBody::Joint *>::operator[]
PUBLIC	?size@?$btAlignedObjectArray@PAUJoint@btSoftBody@@@@QBEHXZ ; btAlignedObjectArray<btSoftBody::Joint *>::size
PUBLIC	??A?$btAlignedObjectArray@PAUMaterial@btSoftBody@@@@QAEAAPAUMaterial@btSoftBody@@H@Z ; btAlignedObjectArray<btSoftBody::Material *>::operator[]
PUBLIC	?size@?$btAlignedObjectArray@PAUMaterial@btSoftBody@@@@QBEHXZ ; btAlignedObjectArray<btSoftBody::Material *>::size
PUBLIC	?releaseClusters@btSoftBody@@QAEXXZ		; btSoftBody::releaseClusters
EXTRN	??1btCollisionObject@@UAE@XZ:PROC		; btCollisionObject::~btCollisionObject
EXTRN	??1btDbvt@@QAE@XZ:PROC				; btDbvt::~btDbvt
; Function compile flags: /Odtp /RTCsu
;	COMDAT ??1btSoftBody@@UAE@XZ
_TEXT	SEGMENT
tv155 = -20						; size = 4
$T65954 = -16						; size = 4
$T65953 = -12						; size = 4
_i$ = -8						; size = 4
_this$ = -4						; size = 4
??1btSoftBody@@UAE@XZ PROC				; btSoftBody::~btSoftBody, COMDAT
; _this$ = ecx
; File d:\專題\自建專案\自建專案\src\bulletsoftbody\btsoftbody.cpp
; Line 273
	push	ebp
	mov	ebp, esp
	sub	esp, 20					; 00000014H
	push	esi
	mov	eax, -858993460				; ccccccccH
	mov	DWORD PTR [ebp-20], eax
	mov	DWORD PTR [ebp-16], eax
	mov	DWORD PTR [ebp-12], eax
	mov	DWORD PTR [ebp-8], eax
	mov	DWORD PTR [ebp-4], eax
	mov	DWORD PTR _this$[ebp], ecx
	mov	eax, DWORD PTR _this$[ebp]
	mov	DWORD PTR [eax], OFFSET ??_7btSoftBody@@6B@
; Line 275
	mov	ecx, DWORD PTR _this$[ebp]
	mov	edx, DWORD PTR [ecx+204]
	mov	DWORD PTR $T65954[ebp], edx
	mov	eax, DWORD PTR $T65954[ebp]
	mov	DWORD PTR $T65953[ebp], eax
	cmp	DWORD PTR $T65953[ebp], 0
	je	SHORT $LN9@btSoftBody@2
	mov	esi, esp
	push	1
	mov	ecx, DWORD PTR $T65953[ebp]
	mov	edx, DWORD PTR [ecx]
	mov	ecx, DWORD PTR $T65953[ebp]
	mov	eax, DWORD PTR [edx]
	call	eax
	cmp	esi, esp
	call	__RTC_CheckEsp
	mov	DWORD PTR tv155[ebp], eax
	jmp	SHORT $LN10@btSoftBody@2
$LN9@btSoftBody@2:
	mov	DWORD PTR tv155[ebp], 0
$LN10@btSoftBody@2:
; Line 278
	mov	ecx, DWORD PTR _this$[ebp]
	call	?releaseClusters@btSoftBody@@QAEXXZ	; btSoftBody::releaseClusters
; Line 279
	mov	DWORD PTR _i$[ebp], 0
	jmp	SHORT $LN6@btSoftBody@2
$LN5@btSoftBody@2:
	mov	ecx, DWORD PTR _i$[ebp]
	add	ecx, 1
	mov	DWORD PTR _i$[ebp], ecx
$LN6@btSoftBody@2:
	mov	ecx, DWORD PTR _this$[ebp]
	add	ecx, 892				; 0000037cH
	call	?size@?$btAlignedObjectArray@PAUMaterial@btSoftBody@@@@QBEHXZ ; btAlignedObjectArray<btSoftBody::Material *>::size
	cmp	DWORD PTR _i$[ebp], eax
	jge	SHORT $LN4@btSoftBody@2
; Line 280
	mov	edx, DWORD PTR _i$[ebp]
	push	edx
	mov	ecx, DWORD PTR _this$[ebp]
	add	ecx, 892				; 0000037cH
	call	??A?$btAlignedObjectArray@PAUMaterial@btSoftBody@@@@QAEAAPAUMaterial@btSoftBody@@H@Z ; btAlignedObjectArray<btSoftBody::Material *>::operator[]
	mov	eax, DWORD PTR [eax]
	push	eax
	call	?btAlignedFreeInternal@@YAXPAX@Z	; btAlignedFreeInternal
	add	esp, 4
	jmp	SHORT $LN5@btSoftBody@2
$LN4@btSoftBody@2:
; Line 281
	mov	DWORD PTR _i$[ebp], 0
	jmp	SHORT $LN3@btSoftBody@2
$LN2@btSoftBody@2:
	mov	ecx, DWORD PTR _i$[ebp]
	add	ecx, 1
	mov	DWORD PTR _i$[ebp], ecx
$LN3@btSoftBody@2:
	mov	ecx, DWORD PTR _this$[ebp]
	add	ecx, 872				; 00000368H
	call	?size@?$btAlignedObjectArray@PAUJoint@btSoftBody@@@@QBEHXZ ; btAlignedObjectArray<btSoftBody::Joint *>::size
	cmp	DWORD PTR _i$[ebp], eax
	jge	SHORT $LN7@btSoftBody@2
; Line 282
	mov	edx, DWORD PTR _i$[ebp]
	push	edx
	mov	ecx, DWORD PTR _this$[ebp]
	add	ecx, 872				; 00000368H
	call	??A?$btAlignedObjectArray@PAUJoint@btSoftBody@@@@QAEAAPAUJoint@btSoftBody@@H@Z ; btAlignedObjectArray<btSoftBody::Joint *>::operator[]
	mov	eax, DWORD PTR [eax]
	push	eax
	call	?btAlignedFreeInternal@@YAXPAX@Z	; btAlignedFreeInternal
	add	esp, 4
	jmp	SHORT $LN2@btSoftBody@2
$LN7@btSoftBody@2:
; Line 283
	mov	ecx, DWORD PTR _this$[ebp]
	add	ecx, 1268				; 000004f4H
	call	??1?$btAlignedObjectArray@H@@QAE@XZ	; btAlignedObjectArray<int>::~btAlignedObjectArray<int>
	mov	ecx, DWORD PTR _this$[ebp]
	add	ecx, 1164				; 0000048cH
	call	??1?$btAlignedObjectArray@_N@@QAE@XZ	; btAlignedObjectArray<bool>::~btAlignedObjectArray<bool>
	mov	ecx, DWORD PTR _this$[ebp]
	add	ecx, 1144				; 00000478H
	call	??1?$btAlignedObjectArray@PAUCluster@btSoftBody@@@@QAE@XZ ; btAlignedObjectArray<btSoftBody::Cluster *>::~btAlignedObjectArray<btSoftBody::Cluster *>
	mov	ecx, DWORD PTR _this$[ebp]
	add	ecx, 1084				; 0000043cH
	call	??1btDbvt@@QAE@XZ			; btDbvt::~btDbvt
	mov	ecx, DWORD PTR _this$[ebp]
	add	ecx, 1024				; 00000400H
	call	??1btDbvt@@QAE@XZ			; btDbvt::~btDbvt
	mov	ecx, DWORD PTR _this$[ebp]
	add	ecx, 964				; 000003c4H
	call	??1btDbvt@@QAE@XZ			; btDbvt::~btDbvt
	mov	ecx, DWORD PTR _this$[ebp]
	add	ecx, 892				; 0000037cH
	call	??1?$btAlignedObjectArray@PAUMaterial@btSoftBody@@@@QAE@XZ ; btAlignedObjectArray<btSoftBody::Material *>::~btAlignedObjectArray<btSoftBody::Material *>
	mov	ecx, DWORD PTR _this$[ebp]
	add	ecx, 872				; 00000368H
	call	??1?$btAlignedObjectArray@PAUJoint@btSoftBody@@@@QAE@XZ ; btAlignedObjectArray<btSoftBody::Joint *>::~btAlignedObjectArray<btSoftBody::Joint *>
	mov	ecx, DWORD PTR _this$[ebp]
	add	ecx, 852				; 00000354H
	call	??1?$btAlignedObjectArray@USContact@btSoftBody@@@@QAE@XZ ; btAlignedObjectArray<btSoftBody::SContact>::~btAlignedObjectArray<btSoftBody::SContact>
	mov	ecx, DWORD PTR _this$[ebp]
	add	ecx, 832				; 00000340H
	call	??1?$btAlignedObjectArray@URContact@btSoftBody@@@@QAE@XZ ; btAlignedObjectArray<btSoftBody::RContact>::~btAlignedObjectArray<btSoftBody::RContact>
	mov	ecx, DWORD PTR _this$[ebp]
	add	ecx, 812				; 0000032cH
	call	??1?$btAlignedObjectArray@UAnchor@btSoftBody@@@@QAE@XZ ; btAlignedObjectArray<btSoftBody::Anchor>::~btAlignedObjectArray<btSoftBody::Anchor>
	mov	ecx, DWORD PTR _this$[ebp]
	add	ecx, 792				; 00000318H
	call	??1?$btAlignedObjectArray@UTetra@btSoftBody@@@@QAE@XZ ; btAlignedObjectArray<btSoftBody::Tetra>::~btAlignedObjectArray<btSoftBody::Tetra>
	mov	ecx, DWORD PTR _this$[ebp]
	add	ecx, 772				; 00000304H
	call	??1?$btAlignedObjectArray@UFace@btSoftBody@@@@QAE@XZ ; btAlignedObjectArray<btSoftBody::Face>::~btAlignedObjectArray<btSoftBody::Face>
	mov	ecx, DWORD PTR _this$[ebp]
	add	ecx, 752				; 000002f0H
	call	??1?$btAlignedObjectArray@ULink@btSoftBody@@@@QAE@XZ ; btAlignedObjectArray<btSoftBody::Link>::~btAlignedObjectArray<btSoftBody::Link>
	mov	ecx, DWORD PTR _this$[ebp]
	add	ecx, 732				; 000002dcH
	call	??1?$btAlignedObjectArray@UNode@btSoftBody@@@@QAE@XZ ; btAlignedObjectArray<btSoftBody::Node>::~btAlignedObjectArray<btSoftBody::Node>
	mov	ecx, DWORD PTR _this$[ebp]
	add	ecx, 712				; 000002c8H
	call	??1?$btAlignedObjectArray@UNote@btSoftBody@@@@QAE@XZ ; btAlignedObjectArray<btSoftBody::Note>::~btAlignedObjectArray<btSoftBody::Note>
	mov	ecx, DWORD PTR _this$[ebp]
	add	ecx, 496				; 000001f0H
	call	??1Pose@btSoftBody@@QAE@XZ
	mov	ecx, DWORD PTR _this$[ebp]
	add	ecx, 312				; 00000138H
	call	??1Config@btSoftBody@@QAE@XZ
	mov	ecx, DWORD PTR _this$[ebp]
	add	ecx, 288				; 00000120H
	call	??1?$btAlignedObjectArray@PBVbtCollisionObject@@@@QAE@XZ ; btAlignedObjectArray<btCollisionObject const *>::~btAlignedObjectArray<btCollisionObject const *>
	mov	ecx, DWORD PTR _this$[ebp]
	call	??1btCollisionObject@@UAE@XZ		; btCollisionObject::~btCollisionObject
	pop	esi
	add	esp, 20					; 00000014H
	cmp	ebp, esp
	call	__RTC_CheckEsp
	mov	esp, ebp
	pop	ebp
	ret	0
??1btSoftBody@@UAE@XZ ENDP				; btSoftBody::~btSoftBody
_TEXT	ENDS
PUBLIC	??1?$btAlignedObjectArray@W4_@eVSolver@btSoftBody@@@@QAE@XZ ; btAlignedObjectArray<enum btSoftBody::eVSolver::_>::~btAlignedObjectArray<enum btSoftBody::eVSolver::_>
PUBLIC	??1?$btAlignedObjectArray@W4_@ePSolver@btSoftBody@@@@QAE@XZ ; btAlignedObjectArray<enum btSoftBody::ePSolver::_>::~btAlignedObjectArray<enum btSoftBody::ePSolver::_>
; Function compile flags: /Odtp /RTCsu
;	COMDAT ??1Config@btSoftBody@@QAE@XZ
_TEXT	SEGMENT
_this$ = -4						; size = 4
??1Config@btSoftBody@@QAE@XZ PROC			; btSoftBody::Config::~Config, COMDAT
; _this$ = ecx
	push	ebp
	mov	ebp, esp
	push	ecx
	mov	DWORD PTR [ebp-4], -858993460		; ccccccccH
	mov	DWORD PTR _this$[ebp], ecx
	mov	ecx, DWORD PTR _this$[ebp]
	add	ecx, 144				; 00000090H
	call	??1?$btAlignedObjectArray@W4_@ePSolver@btSoftBody@@@@QAE@XZ ; btAlignedObjectArray<enum btSoftBody::ePSolver::_>::~btAlignedObjectArray<enum btSoftBody::ePSolver::_>
	mov	ecx, DWORD PTR _this$[ebp]
	add	ecx, 124				; 0000007cH
	call	??1?$btAlignedObjectArray@W4_@ePSolver@btSoftBody@@@@QAE@XZ ; btAlignedObjectArray<enum btSoftBody::ePSolver::_>::~btAlignedObjectArray<enum btSoftBody::ePSolver::_>
	mov	ecx, DWORD PTR _this$[ebp]
	add	ecx, 104				; 00000068H
	call	??1?$btAlignedObjectArray@W4_@eVSolver@btSoftBody@@@@QAE@XZ ; btAlignedObjectArray<enum btSoftBody::eVSolver::_>::~btAlignedObjectArray<enum btSoftBody::eVSolver::_>
	add	esp, 4
	cmp	ebp, esp
	call	__RTC_CheckEsp
	mov	esp, ebp
	pop	ebp
	ret	0
??1Config@btSoftBody@@QAE@XZ ENDP			; btSoftBody::Config::~Config
_TEXT	ENDS
PUBLIC	??1?$btAlignedObjectArray@VbtVector3@@@@QAE@XZ	; btAlignedObjectArray<btVector3>::~btAlignedObjectArray<btVector3>
PUBLIC	??1?$btAlignedObjectArray@M@@QAE@XZ		; btAlignedObjectArray<float>::~btAlignedObjectArray<float>
; Function compile flags: /Odtp /RTCsu
;	COMDAT ??1Pose@btSoftBody@@QAE@XZ
_TEXT	SEGMENT
_this$ = -4						; size = 4
??1Pose@btSoftBody@@QAE@XZ PROC				; btSoftBody::Pose::~Pose, COMDAT
; _this$ = ecx
	push	ebp
	mov	ebp, esp
	push	ecx
	mov	DWORD PTR [ebp-4], -858993460		; ccccccccH
	mov	DWORD PTR _this$[ebp], ecx
	mov	ecx, DWORD PTR _this$[ebp]
	add	ecx, 28					; 0000001cH
	call	??1?$btAlignedObjectArray@M@@QAE@XZ	; btAlignedObjectArray<float>::~btAlignedObjectArray<float>
	mov	ecx, DWORD PTR _this$[ebp]
	add	ecx, 8
	call	??1?$btAlignedObjectArray@VbtVector3@@@@QAE@XZ ; btAlignedObjectArray<btVector3>::~btAlignedObjectArray<btVector3>
	add	esp, 4
	cmp	ebp, esp
	call	__RTC_CheckEsp
	mov	esp, ebp
	pop	ebp
	ret	0
??1Pose@btSoftBody@@QAE@XZ ENDP				; btSoftBody::Pose::~Pose
_TEXT	ENDS
PUBLIC	?checkLink@btSoftBody@@QBE_NPBUNode@1@0@Z	; btSoftBody::checkLink
PUBLIC	??A?$btAlignedObjectArray@UNode@btSoftBody@@@@QBEABUNode@btSoftBody@@H@Z ; btAlignedObjectArray<btSoftBody::Node>::operator[]
PUBLIC	?checkLink@btSoftBody@@QBE_NHH@Z		; btSoftBody::checkLink
; Function compile flags: /Odtp /RTCsu
;	COMDAT ?checkLink@btSoftBody@@QBE_NHH@Z
_TEXT	SEGMENT
_this$ = -4						; size = 4
_node0$ = 8						; size = 4
_node1$ = 12						; size = 4
?checkLink@btSoftBody@@QBE_NHH@Z PROC			; btSoftBody::checkLink, COMDAT
; _this$ = ecx
; Line 287
	push	ebp
	mov	ebp, esp
	push	ecx
	mov	DWORD PTR [ebp-4], -858993460		; ccccccccH
	mov	DWORD PTR _this$[ebp], ecx
; Line 288
	mov	eax, DWORD PTR _node1$[ebp]
	push	eax
	mov	ecx, DWORD PTR _this$[ebp]
	add	ecx, 732				; 000002dcH
	call	??A?$btAlignedObjectArray@UNode@btSoftBody@@@@QBEABUNode@btSoftBody@@H@Z ; btAlignedObjectArray<btSoftBody::Node>::operator[]
	push	eax
	mov	ecx, DWORD PTR _node0$[ebp]
	push	ecx
	mov	ecx, DWORD PTR _this$[ebp]
	add	ecx, 732				; 000002dcH
	call	??A?$btAlignedObjectArray@UNode@btSoftBody@@@@QBEABUNode@btSoftBody@@H@Z ; btAlignedObjectArray<btSoftBody::Node>::operator[]
	push	eax
	mov	ecx, DWORD PTR _this$[ebp]
	call	?checkLink@btSoftBody@@QBE_NPBUNode@1@0@Z ; btSoftBody::checkLink
; Line 289
	add	esp, 4
	cmp	ebp, esp
	call	__RTC_CheckEsp
	mov	esp, ebp
	pop	ebp
	ret	8
?checkLink@btSoftBody@@QBE_NHH@Z ENDP			; btSoftBody::checkLink
_TEXT	ENDS
PUBLIC	??A?$btAlignedObjectArray@ULink@btSoftBody@@@@QBEABULink@btSoftBody@@H@Z ; btAlignedObjectArray<btSoftBody::Link>::operator[]
PUBLIC	?size@?$btAlignedObjectArray@ULink@btSoftBody@@@@QBEHXZ ; btAlignedObjectArray<btSoftBody::Link>::size
; Function compile flags: /Odtp /RTCsu
;	COMDAT ?checkLink@btSoftBody@@QBE_NPBUNode@1@0@Z
_TEXT	SEGMENT
_l$52599 = -32						; size = 4
_ni$52595 = -28						; size = 4
_i$52594 = -24						; size = 4
_n$ = -16						; size = 8
_this$ = -4						; size = 4
_node0$ = 8						; size = 4
_node1$ = 12						; size = 4
?checkLink@btSoftBody@@QBE_NPBUNode@1@0@Z PROC		; btSoftBody::checkLink, COMDAT
; _this$ = ecx
; Line 293
	push	ebp
	mov	ebp, esp
	sub	esp, 32					; 00000020H
	mov	eax, -858993460				; ccccccccH
	mov	DWORD PTR [ebp-32], eax
	mov	DWORD PTR [ebp-28], eax
	mov	DWORD PTR [ebp-24], eax
	mov	DWORD PTR [ebp-20], eax
	mov	DWORD PTR [ebp-16], eax
	mov	DWORD PTR [ebp-12], eax
	mov	DWORD PTR [ebp-8], eax
	mov	DWORD PTR [ebp-4], eax
	mov	DWORD PTR _this$[ebp], ecx
; Line 294
	mov	eax, DWORD PTR _node0$[ebp]
	mov	DWORD PTR _n$[ebp], eax
	mov	ecx, DWORD PTR _node1$[ebp]
	mov	DWORD PTR _n$[ebp+4], ecx
; Line 295
	mov	DWORD PTR _i$52594[ebp], 0
	mov	ecx, DWORD PTR _this$[ebp]
	add	ecx, 752				; 000002f0H
	call	?size@?$btAlignedObjectArray@ULink@btSoftBody@@@@QBEHXZ ; btAlignedObjectArray<btSoftBody::Link>::size
	mov	DWORD PTR _ni$52595[ebp], eax
	jmp	SHORT $LN6@checkLink
$LN5@checkLink:
	mov	edx, DWORD PTR _i$52594[ebp]
	add	edx, 1
	mov	DWORD PTR _i$52594[ebp], edx
$LN6@checkLink:
	mov	eax, DWORD PTR _i$52594[ebp]
	cmp	eax, DWORD PTR _ni$52595[ebp]
	jge	SHORT $LN4@checkLink
; Line 297
	mov	ecx, DWORD PTR _i$52594[ebp]
	push	ecx
	mov	ecx, DWORD PTR _this$[ebp]
	add	ecx, 752				; 000002f0H
	call	??A?$btAlignedObjectArray@ULink@btSoftBody@@@@QBEABULink@btSoftBody@@H@Z ; btAlignedObjectArray<btSoftBody::Link>::operator[]
	mov	DWORD PTR _l$52599[ebp], eax
; Line 299
	mov	edx, DWORD PTR _l$52599[ebp]
	mov	eax, DWORD PTR [edx+8]
	cmp	eax, DWORD PTR _n$[ebp]
	jne	SHORT $LN1@checkLink
	mov	ecx, DWORD PTR _l$52599[ebp]
	mov	edx, DWORD PTR [ecx+12]
	cmp	edx, DWORD PTR _n$[ebp+4]
	je	SHORT $LN2@checkLink
$LN1@checkLink:
	mov	eax, DWORD PTR _l$52599[ebp]
	mov	ecx, DWORD PTR [eax+8]
	cmp	ecx, DWORD PTR _n$[ebp+4]
	jne	SHORT $LN3@checkLink
	mov	edx, DWORD PTR _l$52599[ebp]
	mov	eax, DWORD PTR [edx+12]
	cmp	eax, DWORD PTR _n$[ebp]
	jne	SHORT $LN3@checkLink
$LN2@checkLink:
; Line 301
	mov	al, 1
	jmp	SHORT $LN7@checkLink
$LN3@checkLink:
; Line 303
	jmp	SHORT $LN5@checkLink
$LN4@checkLink:
; Line 304
	xor	al, al
$LN7@checkLink:
; Line 305
	push	edx
	mov	ecx, ebp
	push	eax
	lea	edx, DWORD PTR $LN11@checkLink
	call	@_RTC_CheckStackVars@8
	pop	eax
	pop	edx
	add	esp, 32					; 00000020H
	cmp	ebp, esp
	call	__RTC_CheckEsp
	mov	esp, ebp
	pop	ebp
	ret	8
	npad	1
$LN11@checkLink:
	DD	1
	DD	$LN10@checkLink
$LN10@checkLink:
	DD	-16					; fffffff0H
	DD	8
	DD	$LN9@checkLink
$LN9@checkLink:
	DB	110					; 0000006eH
	DB	0
?checkLink@btSoftBody@@QBE_NPBUNode@1@0@Z ENDP		; btSoftBody::checkLink
_TEXT	ENDS
PUBLIC	??A?$btAlignedObjectArray@UFace@btSoftBody@@@@QBEABUFace@btSoftBody@@H@Z ; btAlignedObjectArray<btSoftBody::Face>::operator[]
PUBLIC	?size@?$btAlignedObjectArray@UFace@btSoftBody@@@@QBEHXZ ; btAlignedObjectArray<btSoftBody::Face>::size
PUBLIC	?checkFace@btSoftBody@@QBE_NHHH@Z		; btSoftBody::checkFace
; Function compile flags: /Odtp /RTCsu
;	COMDAT ?checkFace@btSoftBody@@QBE_NHHH@Z
_TEXT	SEGMENT
_j$52617 = -44						; size = 4
_c$52616 = -40						; size = 4
_f$52615 = -36						; size = 4
_ni$52611 = -32						; size = 4
_i$52610 = -28						; size = 4
_n$ = -20						; size = 12
_this$ = -4						; size = 4
_node0$ = 8						; size = 4
_node1$ = 12						; size = 4
_node2$ = 16						; size = 4
?checkFace@btSoftBody@@QBE_NHHH@Z PROC			; btSoftBody::checkFace, COMDAT
; _this$ = ecx
; Line 309
	push	ebp
	mov	ebp, esp
	sub	esp, 44					; 0000002cH
	push	edi
	push	ecx
	lea	edi, DWORD PTR [ebp-44]
	mov	ecx, 11					; 0000000bH
	mov	eax, -858993460				; ccccccccH
	rep stosd
	pop	ecx
	mov	DWORD PTR _this$[ebp], ecx
; Line 310
	mov	eax, DWORD PTR _node0$[ebp]
	push	eax
	mov	ecx, DWORD PTR _this$[ebp]
	add	ecx, 732				; 000002dcH
	call	??A?$btAlignedObjectArray@UNode@btSoftBody@@@@QBEABUNode@btSoftBody@@H@Z ; btAlignedObjectArray<btSoftBody::Node>::operator[]
	mov	DWORD PTR _n$[ebp], eax
; Line 311
	mov	ecx, DWORD PTR _node1$[ebp]
	push	ecx
	mov	ecx, DWORD PTR _this$[ebp]
	add	ecx, 732				; 000002dcH
	call	??A?$btAlignedObjectArray@UNode@btSoftBody@@@@QBEABUNode@btSoftBody@@H@Z ; btAlignedObjectArray<btSoftBody::Node>::operator[]
	mov	DWORD PTR _n$[ebp+4], eax
; Line 313
	mov	edx, DWORD PTR _node2$[ebp]
	push	edx
	mov	ecx, DWORD PTR _this$[ebp]
	add	ecx, 732				; 000002dcH
	call	??A?$btAlignedObjectArray@UNode@btSoftBody@@@@QBEABUNode@btSoftBody@@H@Z ; btAlignedObjectArray<btSoftBody::Node>::operator[]
	mov	DWORD PTR _n$[ebp+8], eax
; Line 314
	mov	DWORD PTR _i$52610[ebp], 0
	mov	ecx, DWORD PTR _this$[ebp]
	add	ecx, 772				; 00000304H
	call	?size@?$btAlignedObjectArray@UFace@btSoftBody@@@@QBEHXZ ; btAlignedObjectArray<btSoftBody::Face>::size
	mov	DWORD PTR _ni$52611[ebp], eax
	jmp	SHORT $LN10@checkFace
$LN9@checkFace:
	mov	eax, DWORD PTR _i$52610[ebp]
	add	eax, 1
	mov	DWORD PTR _i$52610[ebp], eax
$LN10@checkFace:
	mov	ecx, DWORD PTR _i$52610[ebp]
	cmp	ecx, DWORD PTR _ni$52611[ebp]
	jge	$LN8@checkFace
; Line 316
	mov	edx, DWORD PTR _i$52610[ebp]
	push	edx
	mov	ecx, DWORD PTR _this$[ebp]
	add	ecx, 772				; 00000304H
	call	??A?$btAlignedObjectArray@UFace@btSoftBody@@@@QBEABUFace@btSoftBody@@H@Z ; btAlignedObjectArray<btSoftBody::Face>::operator[]
	mov	DWORD PTR _f$52615[ebp], eax
; Line 317
	mov	DWORD PTR _c$52616[ebp], 0
; Line 318
	mov	DWORD PTR _j$52617[ebp], 0
	jmp	SHORT $LN7@checkFace
$LN6@checkFace:
	mov	eax, DWORD PTR _j$52617[ebp]
	add	eax, 1
	mov	DWORD PTR _j$52617[ebp], eax
$LN7@checkFace:
	cmp	DWORD PTR _j$52617[ebp], 3
	jge	SHORT $LN5@checkFace
; Line 322
	mov	ecx, DWORD PTR _j$52617[ebp]
	mov	edx, DWORD PTR _f$52615[ebp]
	mov	eax, DWORD PTR [edx+ecx*4+8]
	cmp	eax, DWORD PTR _n$[ebp]
	je	SHORT $LN3@checkFace
	mov	ecx, DWORD PTR _j$52617[ebp]
	mov	edx, DWORD PTR _f$52615[ebp]
	mov	eax, DWORD PTR [edx+ecx*4+8]
	cmp	eax, DWORD PTR _n$[ebp+4]
	je	SHORT $LN3@checkFace
	mov	ecx, DWORD PTR _j$52617[ebp]
	mov	edx, DWORD PTR _f$52615[ebp]
	mov	eax, DWORD PTR [edx+ecx*4+8]
	cmp	eax, DWORD PTR _n$[ebp+8]
	jne	SHORT $LN4@checkFace
$LN3@checkFace:
	mov	edx, 1
	mov	ecx, DWORD PTR _j$52617[ebp]
	shl	edx, cl
	or	edx, DWORD PTR _c$52616[ebp]
	mov	DWORD PTR _c$52616[ebp], edx
	jmp	SHORT $LN2@checkFace
$LN4@checkFace:
	jmp	SHORT $LN5@checkFace
$LN2@checkFace:
; Line 323
	jmp	SHORT $LN6@checkFace
$LN5@checkFace:
; Line 324
	cmp	DWORD PTR _c$52616[ebp], 7
	jne	SHORT $LN1@checkFace
	mov	al, 1
	jmp	SHORT $LN11@checkFace
$LN1@checkFace:
; Line 325
	jmp	$LN9@checkFace
$LN8@checkFace:
; Line 326
	xor	al, al
$LN11@checkFace:
; Line 327
	push	edx
	mov	ecx, ebp
	push	eax
	lea	edx, DWORD PTR $LN15@checkFace
	call	@_RTC_CheckStackVars@8
	pop	eax
	pop	edx
	pop	edi
	add	esp, 44					; 0000002cH
	cmp	ebp, esp
	call	__RTC_CheckEsp
	mov	esp, ebp
	pop	ebp
	ret	12					; 0000000cH
	npad	1
$LN15@checkFace:
	DD	1
	DD	$LN14@checkFace
$LN14@checkFace:
	DD	-20					; ffffffecH
	DD	12					; 0000000cH
	DD	$LN13@checkFace
$LN13@checkFace:
	DB	110					; 0000006eH
	DB	0
?checkFace@btSoftBody@@QBE_NHHH@Z ENDP			; btSoftBody::checkFace
_TEXT	ENDS
PUBLIC	?push_back@?$btAlignedObjectArray@PAUMaterial@btSoftBody@@@@QAEXABQAUMaterial@btSoftBody@@@Z ; btAlignedObjectArray<btSoftBody::Material *>::push_back
PUBLIC	??0Material@btSoftBody@@QAE@XZ			; btSoftBody::Material::Material
PUBLIC	??2@YAPAXIPAX@Z					; operator new
; Function compile flags: /Odtp /RTCsu
;	COMDAT ?appendMaterial@btSoftBody@@QAEPAUMaterial@1@XZ
_TEXT	SEGMENT
tv73 = -24						; size = 4
$T65975 = -20						; size = 4
_pm$ = -12						; size = 4
_this$ = -4						; size = 4
?appendMaterial@btSoftBody@@QAEPAUMaterial@1@XZ PROC	; btSoftBody::appendMaterial, COMDAT
; _this$ = ecx
; Line 331
	push	ebp
	mov	ebp, esp
	sub	esp, 24					; 00000018H
	mov	eax, -858993460				; ccccccccH
	mov	DWORD PTR [ebp-24], eax
	mov	DWORD PTR [ebp-20], eax
	mov	DWORD PTR [ebp-16], eax
	mov	DWORD PTR [ebp-12], eax
	mov	DWORD PTR [ebp-8], eax
	mov	DWORD PTR [ebp-4], eax
	mov	DWORD PTR _this$[ebp], ecx
; Line 332
	push	16					; 00000010H
	push	20					; 00000014H
	call	?btAlignedAllocInternal@@YAPAXIH@Z	; btAlignedAllocInternal
	add	esp, 8
	push	eax
	push	20					; 00000014H
	call	??2@YAPAXIPAX@Z				; operator new
	add	esp, 8
	mov	DWORD PTR $T65975[ebp], eax
	cmp	DWORD PTR $T65975[ebp], 0
	je	SHORT $LN5@appendMate
	mov	ecx, DWORD PTR $T65975[ebp]
	call	??0Material@btSoftBody@@QAE@XZ
	mov	DWORD PTR tv73[ebp], eax
	jmp	SHORT $LN6@appendMate
$LN5@appendMate:
	mov	DWORD PTR tv73[ebp], 0
$LN6@appendMate:
	mov	eax, DWORD PTR tv73[ebp]
	mov	DWORD PTR _pm$[ebp], eax
; Line 333
	mov	ecx, DWORD PTR _this$[ebp]
	add	ecx, 892				; 0000037cH
	call	?size@?$btAlignedObjectArray@PAUMaterial@btSoftBody@@@@QBEHXZ ; btAlignedObjectArray<btSoftBody::Material *>::size
	test	eax, eax
	jle	SHORT $LN2@appendMate
; Line 334
	push	0
	mov	ecx, DWORD PTR _this$[ebp]
	add	ecx, 892				; 0000037cH
	call	??A?$btAlignedObjectArray@PAUMaterial@btSoftBody@@@@QAEAAPAUMaterial@btSoftBody@@H@Z ; btAlignedObjectArray<btSoftBody::Material *>::operator[]
	mov	ecx, DWORD PTR [eax]
	mov	edx, DWORD PTR _pm$[ebp]
	mov	eax, DWORD PTR [ecx]
	mov	DWORD PTR [edx], eax
	mov	eax, DWORD PTR [ecx+4]
	mov	DWORD PTR [edx+4], eax
	mov	eax, DWORD PTR [ecx+8]
	mov	DWORD PTR [edx+8], eax
	mov	eax, DWORD PTR [ecx+12]
	mov	DWORD PTR [edx+12], eax
	mov	ecx, DWORD PTR [ecx+16]
	mov	DWORD PTR [edx+16], ecx
; Line 335
	jmp	SHORT $LN1@appendMate
$LN2@appendMate:
; Line 336
	mov	edx, DWORD PTR _pm$[ebp]
	push	edx
	call	??$ZeroInitialize@UMaterial@btSoftBody@@@@YAXAAUMaterial@btSoftBody@@@Z ; ZeroInitialize<btSoftBody::Material>
	add	esp, 4
$LN1@appendMate:
; Line 337
	lea	eax, DWORD PTR _pm$[ebp]
	push	eax
	mov	ecx, DWORD PTR _this$[ebp]
	add	ecx, 892				; 0000037cH
	call	?push_back@?$btAlignedObjectArray@PAUMaterial@btSoftBody@@@@QAEXABQAUMaterial@btSoftBody@@@Z ; btAlignedObjectArray<btSoftBody::Material *>::push_back
; Line 338
	mov	eax, DWORD PTR _pm$[ebp]
; Line 339
	push	edx
	mov	ecx, ebp
	push	eax
	lea	edx, DWORD PTR $LN9@appendMate
	call	@_RTC_CheckStackVars@8
	pop	eax
	pop	edx
	add	esp, 24					; 00000018H
	cmp	ebp, esp
	call	__RTC_CheckEsp
	mov	esp, ebp
	pop	ebp
	ret	0
	npad	1
$LN9@appendMate:
	DD	1
	DD	$LN8@appendMate
$LN8@appendMate:
	DD	-12					; fffffff4H
	DD	4
	DD	$LN7@appendMate
$LN7@appendMate:
	DB	112					; 00000070H
	DB	109					; 0000006dH
	DB	0
?appendMaterial@btSoftBody@@QAEPAUMaterial@1@XZ ENDP	; btSoftBody::appendMaterial
; Function compile flags: /Odtp /RTCsu
_TEXT	ENDS
;	COMDAT ??2@YAPAXIPAX@Z
_TEXT	SEGMENT
___formal$ = 8						; size = 4
__Where$ = 12						; size = 4
??2@YAPAXIPAX@Z PROC					; operator new, COMDAT
; File c:\program files (x86)\microsoft visual studio 10.0\vc\include\new
; Line 56
	push	ebp
	mov	ebp, esp
; Line 57
	mov	eax, DWORD PTR __Where$[ebp]
; Line 58
	pop	ebp
	ret	0
??2@YAPAXIPAX@Z ENDP					; operator new
; Function compile flags: /Odtp /RTCsu
_TEXT	ENDS
;	COMDAT ??0Material@btSoftBody@@QAE@XZ
_TEXT	SEGMENT
_this$ = -4						; size = 4
??0Material@btSoftBody@@QAE@XZ PROC			; btSoftBody::Material::Material, COMDAT
; _this$ = ecx
	push	ebp
	mov	ebp, esp
	push	ecx
	mov	DWORD PTR [ebp-4], -858993460		; ccccccccH
	mov	DWORD PTR _this$[ebp], ecx
	mov	ecx, DWORD PTR _this$[ebp]
	call	??0Element@btSoftBody@@QAE@XZ		; btSoftBody::Element::Element
	mov	eax, DWORD PTR _this$[ebp]
	add	esp, 4
	cmp	ebp, esp
	call	__RTC_CheckEsp
	mov	esp, ebp
	pop	ebp
	ret	0
??0Material@btSoftBody@@QAE@XZ ENDP			; btSoftBody::Material::Material
_TEXT	ENDS
PUBLIC	?push_back@?$btAlignedObjectArray@UNote@btSoftBody@@@@QAEXABUNote@btSoftBody@@@Z ; btAlignedObjectArray<btSoftBody::Note>::push_back
PUBLIC	??0Note@btSoftBody@@QAE@XZ			; btSoftBody::Note::Note
PUBLIC	__$ArrayPad$
PUBLIC	?appendNote@btSoftBody@@QAEXPBDABVbtVector3@@ABVbtVector4@@PAUNode@1@333@Z ; btSoftBody::appendNote
; Function compile flags: /Odtp /RTCsu
;	COMDAT ?appendNote@btSoftBody@@QAEXPBDABVbtVector3@@ABVbtVector4@@PAUNode@1@333@Z
_TEXT	SEGMENT
_n$ = -96						; size = 80
_this$ = -8						; size = 4
__$ArrayPad$ = -4					; size = 4
_text$ = 8						; size = 4
_o$ = 12						; size = 4
_c$ = 16						; size = 4
_n0$ = 20						; size = 4
_n1$ = 24						; size = 4
_n2$ = 28						; size = 4
_n3$ = 32						; size = 4
?appendNote@btSoftBody@@QAEXPBDABVbtVector3@@ABVbtVector4@@PAUNode@1@333@Z PROC ; btSoftBody::appendNote, COMDAT
; _this$ = ecx
; File d:\專題\自建專案\自建專案\src\bulletsoftbody\btsoftbody.cpp
; Line 349
	push	ebx
	mov	ebx, esp
	sub	esp, 8
	and	esp, -16				; fffffff0H
	add	esp, 4
	push	ebp
	mov	ebp, DWORD PTR [ebx+4]
	mov	DWORD PTR [esp+4], ebp
	mov	ebp, esp
	sub	esp, 112				; 00000070H
	push	edi
	push	ecx
	lea	edi, DWORD PTR [ebp-112]
	mov	ecx, 28					; 0000001cH
	mov	eax, -858993460				; ccccccccH
	rep stosd
	pop	ecx
	mov	eax, DWORD PTR ___security_cookie
	xor	eax, ebp
	mov	DWORD PTR __$ArrayPad$[ebp], eax
	mov	DWORD PTR _this$[ebp], ecx
; Line 350
	lea	ecx, DWORD PTR _n$[ebp]
	call	??0Note@btSoftBody@@QAE@XZ
; Line 351
	lea	eax, DWORD PTR _n$[ebp]
	push	eax
	call	??$ZeroInitialize@UNote@btSoftBody@@@@YAXAAUNote@btSoftBody@@@Z ; ZeroInitialize<btSoftBody::Note>
	add	esp, 4
; Line 352
	mov	DWORD PTR _n$[ebp+32], 0
; Line 353
	mov	ecx, DWORD PTR _text$[ebx]
	mov	DWORD PTR _n$[ebp+4], ecx
; Line 354
	mov	edx, DWORD PTR _o$[ebx]
	mov	eax, DWORD PTR [edx]
	mov	DWORD PTR _n$[ebp+16], eax
	mov	ecx, DWORD PTR [edx+4]
	mov	DWORD PTR _n$[ebp+20], ecx
	mov	eax, DWORD PTR [edx+8]
	mov	DWORD PTR _n$[ebp+24], eax
	mov	ecx, DWORD PTR [edx+12]
	mov	DWORD PTR _n$[ebp+28], ecx
; Line 355
	mov	ecx, DWORD PTR _c$[ebx]
	call	?x@btVector3@@QBEABMXZ			; btVector3::x
	fld	DWORD PTR [eax]
	fstp	DWORD PTR _n$[ebp+52]
; Line 356
	mov	ecx, DWORD PTR _c$[ebx]
	call	?y@btVector3@@QBEABMXZ			; btVector3::y
	fld	DWORD PTR [eax]
	fstp	DWORD PTR _n$[ebp+56]
; Line 357
	mov	ecx, DWORD PTR _c$[ebx]
	call	?z@btVector3@@QBEABMXZ			; btVector3::z
	fld	DWORD PTR [eax]
	fstp	DWORD PTR _n$[ebp+60]
; Line 358
	mov	ecx, DWORD PTR _c$[ebx]
	call	?w@btVector3@@QBEABMXZ			; btVector3::w
	fld	DWORD PTR [eax]
	fstp	DWORD PTR _n$[ebp+64]
; Line 359
	mov	edx, DWORD PTR _n0$[ebx]
	mov	DWORD PTR _n$[ebp+36], edx
	xor	eax, eax
	cmp	DWORD PTR _n0$[ebx], 0
	setne	al
	add	eax, DWORD PTR _n$[ebp+32]
	mov	DWORD PTR _n$[ebp+32], eax
; Line 360
	mov	ecx, DWORD PTR _n1$[ebx]
	mov	DWORD PTR _n$[ebp+40], ecx
	xor	edx, edx
	cmp	DWORD PTR _n1$[ebx], 0
	setne	dl
	add	edx, DWORD PTR _n$[ebp+32]
	mov	DWORD PTR _n$[ebp+32], edx
; Line 361
	mov	eax, DWORD PTR _n2$[ebx]
	mov	DWORD PTR _n$[ebp+44], eax
	xor	ecx, ecx
	cmp	DWORD PTR _n2$[ebx], 0
	setne	cl
	add	ecx, DWORD PTR _n$[ebp+32]
	mov	DWORD PTR _n$[ebp+32], ecx
; Line 362
	mov	edx, DWORD PTR _n3$[ebx]
	mov	DWORD PTR _n$[ebp+48], edx
	xor	eax, eax
	cmp	DWORD PTR _n3$[ebx], 0
	setne	al
	add	eax, DWORD PTR _n$[ebp+32]
	mov	DWORD PTR _n$[ebp+32], eax
; Line 363
	lea	ecx, DWORD PTR _n$[ebp]
	push	ecx
	mov	ecx, DWORD PTR _this$[ebp]
	add	ecx, 712				; 000002c8H
	call	?push_back@?$btAlignedObjectArray@UNote@btSoftBody@@@@QAEXABUNote@btSoftBody@@@Z ; btAlignedObjectArray<btSoftBody::Note>::push_back
; Line 364
	push	edx
	mov	ecx, ebp
	push	eax
	lea	edx, DWORD PTR $LN5@appendNote
	call	@_RTC_CheckStackVars@8
	pop	eax
	pop	edx
	pop	edi
	mov	ecx, DWORD PTR __$ArrayPad$[ebp]
	xor	ecx, ebp
	call	@__security_check_cookie@4
	mov	esp, ebp
	pop	ebp
	mov	esp, ebx
	pop	ebx
	ret	28					; 0000001cH
	npad	2
$LN5@appendNote:
	DD	1
	DD	$LN4@appendNote
$LN4@appendNote:
	DD	-96					; ffffffa0H
	DD	80					; 00000050H
	DD	$LN3@appendNote
$LN3@appendNote:
	DB	110					; 0000006eH
	DB	0
?appendNote@btSoftBody@@QAEXPBDABVbtVector3@@ABVbtVector4@@PAUNode@1@333@Z ENDP ; btSoftBody::appendNote
; Function compile flags: /Odtp /RTCsu
_TEXT	ENDS
;	COMDAT ??0Note@btSoftBody@@QAE@XZ
_TEXT	SEGMENT
_this$ = -4						; size = 4
??0Note@btSoftBody@@QAE@XZ PROC				; btSoftBody::Note::Note, COMDAT
; _this$ = ecx
	push	ebp
	mov	ebp, esp
	push	ecx
	mov	DWORD PTR [ebp-4], -858993460		; ccccccccH
	mov	DWORD PTR _this$[ebp], ecx
	mov	ecx, DWORD PTR _this$[ebp]
	call	??0Element@btSoftBody@@QAE@XZ		; btSoftBody::Element::Element
	mov	ecx, DWORD PTR _this$[ebp]
	add	ecx, 16					; 00000010H
	call	??0btVector3@@QAE@XZ			; btVector3::btVector3
	mov	eax, DWORD PTR _this$[ebp]
	add	esp, 4
	cmp	ebp, esp
	call	__RTC_CheckEsp
	mov	esp, ebp
	pop	ebp
	ret	0
??0Note@btSoftBody@@QAE@XZ ENDP				; btSoftBody::Note::Note
_TEXT	ENDS
PUBLIC	??0btVector4@@QAE@ABM000@Z			; btVector4::btVector4
PUBLIC	?appendNote@btSoftBody@@QAEXPBDABVbtVector3@@PAUNode@1@@Z ; btSoftBody::appendNote
; Function compile flags: /Odtp /RTCsu
;	COMDAT ?appendNote@btSoftBody@@QAEXPBDABVbtVector3@@PAUNode@1@@Z
_TEXT	SEGMENT
$T65998 = -48						; size = 4
$T65997 = -44						; size = 4
$T65996 = -40						; size = 4
$T65995 = -36						; size = 4
$T52665 = -32						; size = 16
_this$ = -4						; size = 4
_text$ = 8						; size = 4
_o$ = 12						; size = 4
_feature$ = 16						; size = 4
?appendNote@btSoftBody@@QAEXPBDABVbtVector3@@PAUNode@1@@Z PROC ; btSoftBody::appendNote, COMDAT
; _this$ = ecx
; Line 370
	push	ebx
	mov	ebx, esp
	sub	esp, 8
	and	esp, -16				; fffffff0H
	add	esp, 4
	push	ebp
	mov	ebp, DWORD PTR [ebx+4]
	mov	DWORD PTR [esp+4], ebp
	mov	ebp, esp
	sub	esp, 48					; 00000030H
	push	edi
	push	ecx
	lea	edi, DWORD PTR [ebp-48]
	mov	ecx, 12					; 0000000cH
	mov	eax, -858993460				; ccccccccH
	rep stosd
	pop	ecx
	mov	DWORD PTR _this$[ebp], ecx
; Line 371
	fldz
	fstp	DWORD PTR $T65995[ebp]
	fldz
	fstp	DWORD PTR $T65996[ebp]
	fldz
	fstp	DWORD PTR $T65997[ebp]
	fld1
	fstp	DWORD PTR $T65998[ebp]
	push	0
	push	0
	push	0
	mov	eax, DWORD PTR _feature$[ebx]
	push	eax
	lea	ecx, DWORD PTR $T65995[ebp]
	push	ecx
	lea	edx, DWORD PTR $T65996[ebp]
	push	edx
	lea	eax, DWORD PTR $T65997[ebp]
	push	eax
	lea	ecx, DWORD PTR $T65998[ebp]
	push	ecx
	lea	ecx, DWORD PTR $T52665[ebp]
	call	??0btVector4@@QAE@ABM000@Z		; btVector4::btVector4
	push	eax
	mov	edx, DWORD PTR _o$[ebx]
	push	edx
	mov	eax, DWORD PTR _text$[ebx]
	push	eax
	mov	ecx, DWORD PTR _this$[ebp]
	call	?appendNote@btSoftBody@@QAEXPBDABVbtVector3@@ABVbtVector4@@PAUNode@1@333@Z ; btSoftBody::appendNote
; Line 372
	pop	edi
	mov	esp, ebp
	pop	ebp
	mov	esp, ebx
	pop	ebx
	ret	12					; 0000000cH
?appendNote@btSoftBody@@QAEXPBDABVbtVector3@@PAUNode@1@@Z ENDP ; btSoftBody::appendNote
; Function compile flags: /Odtp /RTCsu
_TEXT	ENDS
;	COMDAT ??0btVector4@@QAE@ABM000@Z
_TEXT	SEGMENT
_this$ = -4						; size = 4
__x$ = 8						; size = 4
__y$ = 12						; size = 4
__z$ = 16						; size = 4
__w$ = 20						; size = 4
??0btVector4@@QAE@ABM000@Z PROC				; btVector4::btVector4, COMDAT
; _this$ = ecx
; File d:\專題\自建專案\自建專案\src\linearmath\btvector3.h
; Line 1085
	push	ebp
	mov	ebp, esp
	push	ecx
	mov	DWORD PTR [ebp-4], -858993460		; ccccccccH
	mov	DWORD PTR _this$[ebp], ecx
	mov	eax, DWORD PTR __z$[ebp]
	push	eax
	mov	ecx, DWORD PTR __y$[ebp]
	push	ecx
	mov	edx, DWORD PTR __x$[ebp]
	push	edx
	mov	ecx, DWORD PTR _this$[ebp]
	call	??0btVector3@@QAE@ABM00@Z		; btVector3::btVector3
; Line 1086
	mov	eax, DWORD PTR _this$[ebp]
	mov	ecx, DWORD PTR __w$[ebp]
	fld	DWORD PTR [ecx]
	fstp	DWORD PTR [eax+12]
; Line 1087
	mov	eax, DWORD PTR _this$[ebp]
	add	esp, 4
	cmp	ebp, esp
	call	__RTC_CheckEsp
	mov	esp, ebp
	pop	ebp
	ret	16					; 00000010H
??0btVector4@@QAE@ABM000@Z ENDP				; btVector4::btVector4
_TEXT	ENDS
PUBLIC	?appendNote@btSoftBody@@QAEXPBDABVbtVector3@@PAULink@1@@Z ; btSoftBody::appendNote
;	COMDAT ?w@?1??appendNote@btSoftBody@@QAEXPBDABVbtVector3@@PAULink@2@@Z@4MB
; File d:\專題\自建專案\自建專案\src\bulletsoftbody\btsoftbody.cpp
CONST	SEGMENT
?w@?1??appendNote@btSoftBody@@QAEXPBDABVbtVector3@@PAULink@2@@Z@4MB DD 03f000000r ; 0.5 ; `btSoftBody::appendNote'::`2'::w
; Function compile flags: /Odtp /RTCsu
CONST	ENDS
;	COMDAT ?appendNote@btSoftBody@@QAEXPBDABVbtVector3@@PAULink@1@@Z
_TEXT	SEGMENT
$T66004 = -40						; size = 4
$T66003 = -36						; size = 4
$T52679 = -32						; size = 16
_this$ = -4						; size = 4
_text$ = 8						; size = 4
_o$ = 12						; size = 4
_feature$ = 16						; size = 4
?appendNote@btSoftBody@@QAEXPBDABVbtVector3@@PAULink@1@@Z PROC ; btSoftBody::appendNote, COMDAT
; _this$ = ecx
; Line 378
	push	ebx
	mov	ebx, esp
	sub	esp, 8
	and	esp, -16				; fffffff0H
	add	esp, 4
	push	ebp
	mov	ebp, DWORD PTR [ebx+4]
	mov	DWORD PTR [esp+4], ebp
	mov	ebp, esp
	sub	esp, 48					; 00000030H
	push	edi
	push	ecx
	lea	edi, DWORD PTR [ebp-48]
	mov	ecx, 12					; 0000000cH
	mov	eax, -858993460				; ccccccccH
	rep stosd
	pop	ecx
	mov	DWORD PTR _this$[ebp], ecx
; Line 381
	fldz
	fstp	DWORD PTR $T66003[ebp]
	fldz
	fstp	DWORD PTR $T66004[ebp]
	push	0
	push	0
	mov	eax, DWORD PTR _feature$[ebx]
	mov	ecx, DWORD PTR [eax+12]
	push	ecx
	mov	edx, DWORD PTR _feature$[ebx]
	mov	eax, DWORD PTR [edx+8]
	push	eax
	lea	ecx, DWORD PTR $T66003[ebp]
	push	ecx
	lea	edx, DWORD PTR $T66004[ebp]
	push	edx
	push	OFFSET ?w@?1??appendNote@btSoftBody@@QAEXPBDABVbtVector3@@PAULink@2@@Z@4MB
	push	OFFSET ?w@?1??appendNote@btSoftBody@@QAEXPBDABVbtVector3@@PAULink@2@@Z@4MB
	lea	ecx, DWORD PTR $T52679[ebp]
	call	??0btVector4@@QAE@ABM000@Z		; btVector4::btVector4
	push	eax
	mov	eax, DWORD PTR _o$[ebx]
	push	eax
	mov	ecx, DWORD PTR _text$[ebx]
	push	ecx
	mov	ecx, DWORD PTR _this$[ebp]
	call	?appendNote@btSoftBody@@QAEXPBDABVbtVector3@@ABVbtVector4@@PAUNode@1@333@Z ; btSoftBody::appendNote
; Line 382
	pop	edi
	mov	esp, ebp
	pop	ebp
	mov	esp, ebx
	pop	ebx
	ret	12					; 0000000cH
?appendNote@btSoftBody@@QAEXPBDABVbtVector3@@PAULink@1@@Z ENDP ; btSoftBody::appendNote
_TEXT	ENDS
PUBLIC	?appendNote@btSoftBody@@QAEXPBDABVbtVector3@@PAUFace@1@@Z ; btSoftBody::appendNote
;	COMDAT ?w@?1??appendNote@btSoftBody@@QAEXPBDABVbtVector3@@PAUFace@2@@Z@4MB
CONST	SEGMENT
?w@?1??appendNote@btSoftBody@@QAEXPBDABVbtVector3@@PAUFace@2@@Z@4MB DD 03eaaaaabr ; 0.333333 ; `btSoftBody::appendNote'::`2'::w
; Function compile flags: /Odtp /RTCsu
CONST	ENDS
;	COMDAT ?appendNote@btSoftBody@@QAEXPBDABVbtVector3@@PAUFace@1@@Z
_TEXT	SEGMENT
$T66007 = -36						; size = 4
$T52691 = -32						; size = 16
_this$ = -4						; size = 4
_text$ = 8						; size = 4
_o$ = 12						; size = 4
_feature$ = 16						; size = 4
?appendNote@btSoftBody@@QAEXPBDABVbtVector3@@PAUFace@1@@Z PROC ; btSoftBody::appendNote, COMDAT
; _this$ = ecx
; Line 388
	push	ebx
	mov	ebx, esp
	sub	esp, 8
	and	esp, -16				; fffffff0H
	add	esp, 4
	push	ebp
	mov	ebp, DWORD PTR [ebx+4]
	mov	DWORD PTR [esp+4], ebp
	mov	ebp, esp
	sub	esp, 48					; 00000030H
	push	edi
	push	ecx
	lea	edi, DWORD PTR [ebp-48]
	mov	ecx, 12					; 0000000cH
	mov	eax, -858993460				; ccccccccH
	rep stosd
	pop	ecx
	mov	DWORD PTR _this$[ebp], ecx
; Line 392
	fldz
	fstp	DWORD PTR $T66007[ebp]
	push	0
	mov	eax, DWORD PTR _feature$[ebx]
	mov	ecx, DWORD PTR [eax+16]
	push	ecx
	mov	edx, DWORD PTR _feature$[ebx]
	mov	eax, DWORD PTR [edx+12]
	push	eax
	mov	ecx, DWORD PTR _feature$[ebx]
	mov	edx, DWORD PTR [ecx+8]
	push	edx
	lea	eax, DWORD PTR $T66007[ebp]
	push	eax
	push	OFFSET ?w@?1??appendNote@btSoftBody@@QAEXPBDABVbtVector3@@PAUFace@2@@Z@4MB
	push	OFFSET ?w@?1??appendNote@btSoftBody@@QAEXPBDABVbtVector3@@PAUFace@2@@Z@4MB
	push	OFFSET ?w@?1??appendNote@btSoftBody@@QAEXPBDABVbtVector3@@PAUFace@2@@Z@4MB
	lea	ecx, DWORD PTR $T52691[ebp]
	call	??0btVector4@@QAE@ABM000@Z		; btVector4::btVector4
	push	eax
	mov	ecx, DWORD PTR _o$[ebx]
	push	ecx
	mov	edx, DWORD PTR _text$[ebx]
	push	edx
	mov	ecx, DWORD PTR _this$[ebp]
	call	?appendNote@btSoftBody@@QAEXPBDABVbtVector3@@ABVbtVector4@@PAUNode@1@333@Z ; btSoftBody::appendNote
; Line 393
	pop	edi
	mov	esp, ebp
	pop	ebp
	mov	esp, ebx
	pop	ebx
	ret	12					; 0000000cH
?appendNote@btSoftBody@@QAEXPBDABVbtVector3@@PAUFace@1@@Z ENDP ; btSoftBody::appendNote
_TEXT	ENDS
PUBLIC	?push_back@?$btAlignedObjectArray@UNode@btSoftBody@@@@QAEXABUNode@btSoftBody@@@Z ; btAlignedObjectArray<btSoftBody::Node>::push_back
PUBLIC	?indicesToPointers@btSoftBody@@QAEXPBH@Z	; btSoftBody::indicesToPointers
PUBLIC	?reserve@?$btAlignedObjectArray@UNode@btSoftBody@@@@QAEXH@Z ; btAlignedObjectArray<btSoftBody::Node>::reserve
PUBLIC	?pointersToIndices@btSoftBody@@QAEXXZ		; btSoftBody::pointersToIndices
PUBLIC	?size@?$btAlignedObjectArray@UNode@btSoftBody@@@@QBEHXZ ; btAlignedObjectArray<btSoftBody::Node>::size
PUBLIC	?capacity@?$btAlignedObjectArray@UNode@btSoftBody@@@@QBEHXZ ; btAlignedObjectArray<btSoftBody::Node>::capacity
PUBLIC	?appendNode@btSoftBody@@QAEXABVbtVector3@@M@Z	; btSoftBody::appendNode
; Function compile flags: /Odtp /RTCsu
;	COMDAT ?appendNode@btSoftBody@@QAEXABVbtVector3@@M@Z
_TEXT	SEGMENT
tv147 = -200						; size = 4
tv89 = -196						; size = 4
$T52702 = -192						; size = 32
_n$ = -148						; size = 4
$T52700 = -144						; size = 128
_margin$ = -8						; size = 4
_this$ = -4						; size = 4
_x$ = 8							; size = 4
_m$ = 12						; size = 4
?appendNode@btSoftBody@@QAEXABVbtVector3@@M@Z PROC	; btSoftBody::appendNode, COMDAT
; _this$ = ecx
; Line 397
	push	ebx
	mov	ebx, esp
	sub	esp, 8
	and	esp, -16				; fffffff0H
	add	esp, 4
	push	ebp
	mov	ebp, DWORD PTR [ebx+4]
	mov	DWORD PTR [esp+4], ebp
	mov	ebp, esp
	sub	esp, 204				; 000000ccH
	push	esi
	push	edi
	push	ecx
	lea	edi, DWORD PTR [ebp-204]
	mov	ecx, 51					; 00000033H
	mov	eax, -858993460				; ccccccccH
	rep stosd
	pop	ecx
	mov	DWORD PTR _this$[ebp], ecx
; Line 398
	mov	ecx, DWORD PTR _this$[ebp]
	add	ecx, 732				; 000002dcH
	call	?capacity@?$btAlignedObjectArray@UNode@btSoftBody@@@@QBEHXZ ; btAlignedObjectArray<btSoftBody::Node>::capacity
	mov	esi, eax
	mov	ecx, DWORD PTR _this$[ebp]
	add	ecx, 732				; 000002dcH
	call	?size@?$btAlignedObjectArray@UNode@btSoftBody@@@@QBEHXZ ; btAlignedObjectArray<btSoftBody::Node>::size
	cmp	esi, eax
	jne	SHORT $LN1@appendNode
; Line 400
	mov	ecx, DWORD PTR _this$[ebp]
	call	?pointersToIndices@btSoftBody@@QAEXXZ	; btSoftBody::pointersToIndices
; Line 401
	mov	ecx, DWORD PTR _this$[ebp]
	add	ecx, 732				; 000002dcH
	call	?size@?$btAlignedObjectArray@UNode@btSoftBody@@@@QBEHXZ ; btAlignedObjectArray<btSoftBody::Node>::size
	lea	eax, DWORD PTR [eax+eax+1]
	push	eax
	mov	ecx, DWORD PTR _this$[ebp]
	add	ecx, 732				; 000002dcH
	call	?reserve@?$btAlignedObjectArray@UNode@btSoftBody@@@@QAEXH@Z ; btAlignedObjectArray<btSoftBody::Node>::reserve
; Line 402
	push	0
	mov	ecx, DWORD PTR _this$[ebp]
	call	?indicesToPointers@btSoftBody@@QAEXPBH@Z ; btSoftBody::indicesToPointers
$LN1@appendNode:
; Line 404
	mov	ecx, DWORD PTR _this$[ebp]
	call	?getCollisionShape@btCollisionObject@@QAEPAVbtCollisionShape@@XZ ; btCollisionObject::getCollisionShape
	mov	DWORD PTR tv89[ebp], eax
	mov	ecx, DWORD PTR tv89[ebp]
	mov	edx, DWORD PTR [ecx]
	mov	esi, esp
	mov	ecx, DWORD PTR tv89[ebp]
	mov	eax, DWORD PTR [edx+44]
	call	eax
	cmp	esi, esp
	call	__RTC_CheckEsp
	fstp	DWORD PTR _margin$[ebp]
; Line 405
	lea	ecx, DWORD PTR $T52700[ebp]
	call	??0Node@btSoftBody@@QAE@XZ
	push	eax
	mov	ecx, DWORD PTR _this$[ebp]
	add	ecx, 732				; 000002dcH
	call	?push_back@?$btAlignedObjectArray@UNode@btSoftBody@@@@QAEXABUNode@btSoftBody@@@Z ; btAlignedObjectArray<btSoftBody::Node>::push_back
; Line 406
	mov	ecx, DWORD PTR _this$[ebp]
	add	ecx, 732				; 000002dcH
	call	?size@?$btAlignedObjectArray@UNode@btSoftBody@@@@QBEHXZ ; btAlignedObjectArray<btSoftBody::Node>::size
	sub	eax, 1
	push	eax
	mov	ecx, DWORD PTR _this$[ebp]
	add	ecx, 732				; 000002dcH
	call	??A?$btAlignedObjectArray@UNode@btSoftBody@@@@QAEAAUNode@btSoftBody@@H@Z ; btAlignedObjectArray<btSoftBody::Node>::operator[]
	mov	DWORD PTR _n$[ebp], eax
; Line 407
	mov	ecx, DWORD PTR _n$[ebp]
	push	ecx
	call	??$ZeroInitialize@UNode@btSoftBody@@@@YAXAAUNode@btSoftBody@@@Z ; ZeroInitialize<btSoftBody::Node>
	add	esp, 4
; Line 408
	mov	edx, DWORD PTR _x$[ebx]
	mov	eax, DWORD PTR _n$[ebp]
	add	eax, 16					; 00000010H
	mov	ecx, DWORD PTR [edx]
	mov	DWORD PTR [eax], ecx
	mov	ecx, DWORD PTR [edx+4]
	mov	DWORD PTR [eax+4], ecx
	mov	ecx, DWORD PTR [edx+8]
	mov	DWORD PTR [eax+8], ecx
	mov	edx, DWORD PTR [edx+12]
	mov	DWORD PTR [eax+12], edx
; Line 409
	mov	eax, DWORD PTR _n$[ebp]
	add	eax, 16					; 00000010H
	mov	ecx, DWORD PTR _n$[ebp]
	add	ecx, 32					; 00000020H
	mov	edx, DWORD PTR [eax]
	mov	DWORD PTR [ecx], edx
	mov	edx, DWORD PTR [eax+4]
	mov	DWORD PTR [ecx+4], edx
	mov	edx, DWORD PTR [eax+8]
	mov	DWORD PTR [ecx+8], edx
	mov	eax, DWORD PTR [eax+12]
	mov	DWORD PTR [ecx+12], eax
; Line 410
	fldz
	fcomp	DWORD PTR _m$[ebx]
	fnstsw	ax
	test	ah, 5
	jp	SHORT $LN4@appendNode
	fld1
	fdiv	DWORD PTR _m$[ebx]
	fstp	DWORD PTR tv147[ebp]
	jmp	SHORT $LN5@appendNode
$LN4@appendNode:
	fldz
	fstp	DWORD PTR tv147[ebp]
$LN5@appendNode:
	mov	ecx, DWORD PTR _n$[ebp]
	fld	DWORD PTR tv147[ebp]
	fstp	DWORD PTR [ecx+96]
; Line 411
	push	0
	mov	ecx, DWORD PTR _this$[ebp]
	add	ecx, 892				; 0000037cH
	call	??A?$btAlignedObjectArray@PAUMaterial@btSoftBody@@@@QAEAAPAUMaterial@btSoftBody@@H@Z ; btAlignedObjectArray<btSoftBody::Material *>::operator[]
	mov	edx, DWORD PTR _n$[ebp]
	mov	eax, DWORD PTR [eax]
	mov	DWORD PTR [edx+4], eax
; Line 412
	mov	ecx, DWORD PTR _n$[ebp]
	push	ecx
	push	ecx
	fld	DWORD PTR _margin$[ebp]
	fstp	DWORD PTR [esp]
	mov	edx, DWORD PTR _n$[ebp]
	add	edx, 16					; 00000010H
	push	edx
	lea	eax, DWORD PTR $T52702[ebp]
	push	eax
	call	?FromCR@btDbvtAabbMm@@SA?AU1@ABVbtVector3@@M@Z ; btDbvtAabbMm::FromCR
	add	esp, 12					; 0000000cH
	push	eax
	mov	ecx, DWORD PTR _this$[ebp]
	add	ecx, 964				; 000003c4H
	call	?insert@btDbvt@@QAEPAUbtDbvtNode@@ABUbtDbvtAabbMm@@PAX@Z ; btDbvt::insert
	mov	ecx, DWORD PTR _n$[ebp]
	mov	DWORD PTR [ecx+104], eax
; Line 413
	pop	edi
	pop	esi
	mov	esp, ebp
	pop	ebp
	mov	esp, ebx
	pop	ebx
	ret	8
?appendNode@btSoftBody@@QAEXABVbtVector3@@M@Z ENDP	; btSoftBody::appendNode
_TEXT	ENDS
PUBLIC	?push_back@?$btAlignedObjectArray@ULink@btSoftBody@@@@QAEXABULink@btSoftBody@@@Z ; btAlignedObjectArray<btSoftBody::Link>::push_back
PUBLIC	??A?$btAlignedObjectArray@ULink@btSoftBody@@@@QAEAAULink@btSoftBody@@H@Z ; btAlignedObjectArray<btSoftBody::Link>::operator[]
PUBLIC	??0Link@btSoftBody@@QAE@XZ			; btSoftBody::Link::Link
PUBLIC	?appendLink@btSoftBody@@QAEXHPAUMaterial@1@@Z	; btSoftBody::appendLink
; Function compile flags: /Odtp /RTCsu
;	COMDAT ?appendLink@btSoftBody@@QAEXHPAUMaterial@1@@Z
_TEXT	SEGMENT
tv82 = -88						; size = 4
_l$ = -80						; size = 64
_this$ = -4						; size = 4
_model$ = 8						; size = 4
_mat$ = 12						; size = 4
?appendLink@btSoftBody@@QAEXHPAUMaterial@1@@Z PROC	; btSoftBody::appendLink, COMDAT
; _this$ = ecx
; Line 417
	push	ebx
	mov	ebx, esp
	sub	esp, 8
	and	esp, -16				; fffffff0H
	add	esp, 4
	push	ebp
	mov	ebp, DWORD PTR [ebx+4]
	mov	DWORD PTR [esp+4], ebp
	mov	ebp, esp
	sub	esp, 88					; 00000058H
	push	esi
	push	edi
	push	ecx
	lea	edi, DWORD PTR [ebp-88]
	mov	ecx, 22					; 00000016H
	mov	eax, -858993460				; ccccccccH
	rep stosd
	pop	ecx
	mov	DWORD PTR _this$[ebp], ecx
; Line 418
	lea	ecx, DWORD PTR _l$[ebp]
	call	??0Link@btSoftBody@@QAE@XZ
; Line 419
	cmp	DWORD PTR _model$[ebx], 0
	jl	SHORT $LN2@appendLink
; Line 420
	mov	eax, DWORD PTR _model$[ebx]
	push	eax
	mov	ecx, DWORD PTR _this$[ebp]
	add	ecx, 752				; 000002f0H
	call	??A?$btAlignedObjectArray@ULink@btSoftBody@@@@QAEAAULink@btSoftBody@@H@Z ; btAlignedObjectArray<btSoftBody::Link>::operator[]
	mov	ecx, 16					; 00000010H
	mov	esi, eax
	lea	edi, DWORD PTR _l$[ebp]
	rep movsd
; Line 421
	jmp	SHORT $LN1@appendLink
$LN2@appendLink:
; Line 423
	lea	ecx, DWORD PTR _l$[ebp]
	push	ecx
	call	??$ZeroInitialize@ULink@btSoftBody@@@@YAXAAULink@btSoftBody@@@Z ; ZeroInitialize<btSoftBody::Link>
	add	esp, 4
; Line 424
	cmp	DWORD PTR _mat$[ebx], 0
	je	SHORT $LN5@appendLink
	mov	edx, DWORD PTR _mat$[ebx]
	mov	DWORD PTR tv82[ebp], edx
	jmp	SHORT $LN6@appendLink
$LN5@appendLink:
	push	0
	mov	ecx, DWORD PTR _this$[ebp]
	add	ecx, 892				; 0000037cH
	call	??A?$btAlignedObjectArray@PAUMaterial@btSoftBody@@@@QAEAAPAUMaterial@btSoftBody@@H@Z ; btAlignedObjectArray<btSoftBody::Material *>::operator[]
	mov	eax, DWORD PTR [eax]
	mov	DWORD PTR tv82[ebp], eax
$LN6@appendLink:
	mov	ecx, DWORD PTR tv82[ebp]
	mov	DWORD PTR _l$[ebp+4], ecx
$LN1@appendLink:
; Line 426
	lea	edx, DWORD PTR _l$[ebp]
	push	edx
	mov	ecx, DWORD PTR _this$[ebp]
	add	ecx, 752				; 000002f0H
	call	?push_back@?$btAlignedObjectArray@ULink@btSoftBody@@@@QAEXABULink@btSoftBody@@@Z ; btAlignedObjectArray<btSoftBody::Link>::push_back
; Line 427
	push	edx
	mov	ecx, ebp
	push	eax
	lea	edx, DWORD PTR $LN9@appendLink
	call	@_RTC_CheckStackVars@8
	pop	eax
	pop	edx
	pop	edi
	pop	esi
	mov	esp, ebp
	pop	ebp
	mov	esp, ebx
	pop	ebx
	ret	8
$LN9@appendLink:
	DD	1
	DD	$LN8@appendLink
$LN8@appendLink:
	DD	-80					; ffffffb0H
	DD	64					; 00000040H
	DD	$LN7@appendLink
$LN7@appendLink:
	DB	108					; 0000006cH
	DB	0
?appendLink@btSoftBody@@QAEXHPAUMaterial@1@@Z ENDP	; btSoftBody::appendLink
; Function compile flags: /Odtp /RTCsu
_TEXT	ENDS
;	COMDAT ??0Link@btSoftBody@@QAE@XZ
_TEXT	SEGMENT
_this$ = -4						; size = 4
??0Link@btSoftBody@@QAE@XZ PROC				; btSoftBody::Link::Link, COMDAT
; _this$ = ecx
	push	ebp
	mov	ebp, esp
	push	ecx
	mov	DWORD PTR [ebp-4], -858993460		; ccccccccH
	mov	DWORD PTR _this$[ebp], ecx
	mov	ecx, DWORD PTR _this$[ebp]
	call	??0Feature@btSoftBody@@QAE@XZ
	mov	ecx, DWORD PTR _this$[ebp]
	add	ecx, 48					; 00000030H
	call	??0btVector3@@QAE@XZ			; btVector3::btVector3
	mov	eax, DWORD PTR _this$[ebp]
	add	esp, 4
	cmp	ebp, esp
	call	__RTC_CheckEsp
	mov	esp, ebp
	pop	ebp
	ret	0
??0Link@btSoftBody@@QAE@XZ ENDP				; btSoftBody::Link::Link
_TEXT	ENDS
PUBLIC	?appendLink@btSoftBody@@QAEXPAUNode@1@0PAUMaterial@1@_N@Z ; btSoftBody::appendLink
PUBLIC	?appendLink@btSoftBody@@QAEXHHPAUMaterial@1@_N@Z ; btSoftBody::appendLink
; Function compile flags: /Odtp /RTCsu
;	COMDAT ?appendLink@btSoftBody@@QAEXHHPAUMaterial@1@_N@Z
_TEXT	SEGMENT
_this$ = -4						; size = 4
_node0$ = 8						; size = 4
_node1$ = 12						; size = 4
_mat$ = 16						; size = 4
_bcheckexist$ = 20					; size = 1
?appendLink@btSoftBody@@QAEXHHPAUMaterial@1@_N@Z PROC	; btSoftBody::appendLink, COMDAT
; _this$ = ecx
; Line 434
	push	ebp
	mov	ebp, esp
	push	ecx
	mov	DWORD PTR [ebp-4], -858993460		; ccccccccH
	mov	DWORD PTR _this$[ebp], ecx
; Line 435
	movzx	eax, BYTE PTR _bcheckexist$[ebp]
	push	eax
	mov	ecx, DWORD PTR _mat$[ebp]
	push	ecx
	mov	edx, DWORD PTR _node1$[ebp]
	push	edx
	mov	ecx, DWORD PTR _this$[ebp]
	add	ecx, 732				; 000002dcH
	call	??A?$btAlignedObjectArray@UNode@btSoftBody@@@@QAEAAUNode@btSoftBody@@H@Z ; btAlignedObjectArray<btSoftBody::Node>::operator[]
	push	eax
	mov	eax, DWORD PTR _node0$[ebp]
	push	eax
	mov	ecx, DWORD PTR _this$[ebp]
	add	ecx, 732				; 000002dcH
	call	??A?$btAlignedObjectArray@UNode@btSoftBody@@@@QAEAAUNode@btSoftBody@@H@Z ; btAlignedObjectArray<btSoftBody::Node>::operator[]
	push	eax
	mov	ecx, DWORD PTR _this$[ebp]
	call	?appendLink@btSoftBody@@QAEXPAUNode@1@0PAUMaterial@1@_N@Z ; btSoftBody::appendLink
; Line 436
	add	esp, 4
	cmp	ebp, esp
	call	__RTC_CheckEsp
	mov	esp, ebp
	pop	ebp
	ret	16					; 00000010H
?appendLink@btSoftBody@@QAEXHHPAUMaterial@1@_N@Z ENDP	; btSoftBody::appendLink
_TEXT	ENDS
PUBLIC	?length@btVector3@@QBEMXZ			; btVector3::length
; Function compile flags: /Odtp /RTCsu
;	COMDAT ?appendLink@btSoftBody@@QAEXPAUNode@1@0PAUMaterial@1@_N@Z
_TEXT	SEGMENT
$T52734 = -32						; size = 16
_l$52733 = -8						; size = 4
_this$ = -4						; size = 4
_node0$ = 8						; size = 4
_node1$ = 12						; size = 4
_mat$ = 16						; size = 4
_bcheckexist$ = 20					; size = 1
?appendLink@btSoftBody@@QAEXPAUNode@1@0PAUMaterial@1@_N@Z PROC ; btSoftBody::appendLink, COMDAT
; _this$ = ecx
; Line 443
	push	ebx
	mov	ebx, esp
	sub	esp, 8
	and	esp, -16				; fffffff0H
	add	esp, 4
	push	ebp
	mov	ebp, DWORD PTR [ebx+4]
	mov	DWORD PTR [esp+4], ebp
	mov	ebp, esp
	sub	esp, 32					; 00000020H
	mov	eax, -858993460				; ccccccccH
	mov	DWORD PTR [ebp-32], eax
	mov	DWORD PTR [ebp-28], eax
	mov	DWORD PTR [ebp-24], eax
	mov	DWORD PTR [ebp-20], eax
	mov	DWORD PTR [ebp-16], eax
	mov	DWORD PTR [ebp-12], eax
	mov	DWORD PTR [ebp-8], eax
	mov	DWORD PTR [ebp-4], eax
	mov	DWORD PTR _this$[ebp], ecx
; Line 444
	movzx	eax, BYTE PTR _bcheckexist$[ebx]
	test	eax, eax
	je	SHORT $LN1@appendLink@2
	mov	ecx, DWORD PTR _node1$[ebx]
	push	ecx
	mov	edx, DWORD PTR _node0$[ebx]
	push	edx
	mov	ecx, DWORD PTR _this$[ebp]
	call	?checkLink@btSoftBody@@QBE_NPBUNode@1@0@Z ; btSoftBody::checkLink
	movzx	eax, al
	test	eax, eax
	jne	SHORT $LN2@appendLink@2
$LN1@appendLink@2:
; Line 446
	mov	ecx, DWORD PTR _mat$[ebx]
	push	ecx
	push	-1
	mov	ecx, DWORD PTR _this$[ebp]
	call	?appendLink@btSoftBody@@QAEXHPAUMaterial@1@@Z ; btSoftBody::appendLink
; Line 447
	mov	ecx, DWORD PTR _this$[ebp]
	add	ecx, 752				; 000002f0H
	call	?size@?$btAlignedObjectArray@ULink@btSoftBody@@@@QBEHXZ ; btAlignedObjectArray<btSoftBody::Link>::size
	sub	eax, 1
	push	eax
	mov	ecx, DWORD PTR _this$[ebp]
	add	ecx, 752				; 000002f0H
	call	??A?$btAlignedObjectArray@ULink@btSoftBody@@@@QAEAAULink@btSoftBody@@H@Z ; btAlignedObjectArray<btSoftBody::Link>::operator[]
	mov	DWORD PTR _l$52733[ebp], eax
; Line 448
	mov	edx, DWORD PTR _l$52733[ebp]
	mov	eax, DWORD PTR _node0$[ebx]
	mov	DWORD PTR [edx+8], eax
; Line 449
	mov	ecx, DWORD PTR _l$52733[ebp]
	mov	edx, DWORD PTR _node1$[ebx]
	mov	DWORD PTR [ecx+12], edx
; Line 450
	mov	eax, DWORD PTR _l$52733[ebp]
	mov	ecx, DWORD PTR [eax+12]
	add	ecx, 16					; 00000010H
	push	ecx
	mov	edx, DWORD PTR _l$52733[ebp]
	mov	eax, DWORD PTR [edx+8]
	add	eax, 16					; 00000010H
	push	eax
	lea	ecx, DWORD PTR $T52734[ebp]
	push	ecx
	call	??G@YA?AVbtVector3@@ABV0@0@Z		; operator-
	add	esp, 12					; 0000000cH
	mov	ecx, eax
	call	?length@btVector3@@QBEMXZ		; btVector3::length
	mov	edx, DWORD PTR _l$52733[ebp]
	fstp	DWORD PTR [edx+16]
; Line 451
	mov	eax, DWORD PTR _this$[ebp]
	mov	BYTE PTR [eax+960], 1
$LN2@appendLink@2:
; Line 453
	mov	esp, ebp
	pop	ebp
	mov	esp, ebx
	pop	ebx
	ret	16					; 00000010H
?appendLink@btSoftBody@@QAEXPAUNode@1@0PAUMaterial@1@_N@Z ENDP ; btSoftBody::appendLink
_TEXT	ENDS
PUBLIC	?btSqrt@@YAMM@Z					; btSqrt
PUBLIC	?length2@btVector3@@QBEMXZ			; btVector3::length2
; Function compile flags: /Odtp /RTCsu
;	COMDAT ?length@btVector3@@QBEMXZ
_TEXT	SEGMENT
_this$ = -4						; size = 4
?length@btVector3@@QBEMXZ PROC				; btVector3::length, COMDAT
; _this$ = ecx
; File d:\專題\自建專案\自建專案\src\linearmath\btvector3.h
; Line 264
	push	ebp
	mov	ebp, esp
	push	ecx
	mov	DWORD PTR [ebp-4], -858993460		; ccccccccH
	mov	DWORD PTR _this$[ebp], ecx
; Line 265
	mov	ecx, DWORD PTR _this$[ebp]
	call	?length2@btVector3@@QBEMXZ		; btVector3::length2
	push	ecx
	fstp	DWORD PTR [esp]
	call	?btSqrt@@YAMM@Z				; btSqrt
	add	esp, 4
; Line 266
	add	esp, 4
	cmp	ebp, esp
	call	__RTC_CheckEsp
	mov	esp, ebp
	pop	ebp
	ret	0
?length@btVector3@@QBEMXZ ENDP				; btVector3::length
; Function compile flags: /Odtp /RTCsu
_TEXT	ENDS
;	COMDAT ?btSqrt@@YAMM@Z
_TEXT	SEGMENT
_y$ = 8							; size = 4
